Functn01: "TOEXIT"
0000                          BEGIN
0003                          GoMap(01, 04, 01, 01)
001E                          RETURN

Functn02: "TELEPORT"
0000                          BEGIN
0003                          ax = CheckLevel(0014) ? 1 : 0 [es:bx+0x44]
0011 74 2A                    jz 0x3d
0013                          ShowMessage(03FC) = You may enter.
0020                          GoMap(01, 8D, 01, 05)
003B EB 2B                    jmp 0x68
003D                          ShowMessage(040B) = Only heroes of the twentieth level or higher may venture beyond this door.
004A B8 01 00                 mov ax, 0x1
004D 50                       push ax
004E C4 5E 06                 les bx, [bp+0x6]
0051 26 FF 5F 24              call far word [es:bx+0x24]
0055 50                       push ax
0056 C4 5E 06                 les bx, [bp+0x6]
0059 26 FF 5F 20              call far word [es:bx+0x20]
005D 50                       push ax
005E C4 5E 06                 les bx, [bp+0x6]
0061 26 FF 5F 2C              call far word [es:bx+0x2c]
0065 83 C4 06                 add sp, 0x6
0068                          RETURN

Functn03: "LOWMNSTR"
0000                          BEGIN
0003 C4 5E 06                 les bx, [bp+0x6]
0006 26 FF 9F F0 00           call far word [es:bx+0xf0]
000B 3D 01 00                 cmp ax, 0x1
000E 74 0D                    jz 0x1d
0010 C4 5E 06                 les bx, [bp+0x6]
0013 26 FF 9F F0 00           call far word [es:bx+0xf0]
0018 3D 02 00                 cmp ax, 0x2
001B 75 26                    jnz 0x43
001D B8 1A 00                 mov ax, 0x1a
0020 50                       push ax
0021 B8 01 00                 mov ax, 0x1
0024 50                       push ax
0025 C4 5E 06                 les bx, [bp+0x6]
0028 26 FF 9F D4 00           call far word [es:bx+0xd4]
002D 59                       pop cx
002E 59                       pop cx
002F B8 1A 00                 mov ax, 0x1a
0032 50                       push ax
0033 B8 02 00                 mov ax, 0x2
0036 50                       push ax
0037 C4 5E 06                 les bx, [bp+0x6]
003A 26 FF 9F D4 00           call far word [es:bx+0xd4]
003F 59                       pop cx
0040 59                       pop cx
0041 EB 48                    jmp 0x8b
0043 B8 1A 00                 mov ax, 0x1a
0046 50                       push ax
0047 B8 01 00                 mov ax, 0x1
004A 50                       push ax
004B C4 5E 06                 les bx, [bp+0x6]
004E 26 FF 9F D4 00           call far word [es:bx+0xd4]
0053 59                       pop cx
0054 59                       pop cx
0055 B8 1A 00                 mov ax, 0x1a
0058 50                       push ax
0059 B8 02 00                 mov ax, 0x2
005C 50                       push ax
005D C4 5E 06                 les bx, [bp+0x6]
0060 26 FF 9F D4 00           call far word [es:bx+0xd4]
0065 59                       pop cx
0066 59                       pop cx
0067 B8 19 00                 mov ax, 0x19
006A 50                       push ax
006B B8 03 00                 mov ax, 0x3
006E 50                       push ax
006F C4 5E 06                 les bx, [bp+0x6]
0072 26 FF 9F D4 00           call far word [es:bx+0xd4]
0077 59                       pop cx
0078 59                       pop cx
0079 B8 19 00                 mov ax, 0x19
007C 50                       push ax
007D B8 04 00                 mov ax, 0x4
0080 50                       push ax
0081 C4 5E 06                 les bx, [bp+0x6]
0084 26 FF 9F D4 00           call far word [es:bx+0xd4]
0089 59                       pop cx
008A 59                       pop cx
008B                          RETURN

Functn04: "SMALGOLD"
0000                          BEGIN
0003                          ax = CheckState(02, 02) [es:bx+0xf0]
0014 3D 01 00                 cmp ax, 0x1
0017 75 0F                    jnz 0x28
0019                          ShowMessage(0456) = The room is bare.
0026 EB 33                    jmp 0x5b
0028 33 C0                    xor ax, ax
002A BA 64 00                 mov dx, 0x64
002D 50                       push ax
002E 52                       push dx
002F C4 5E 06                 les bx, [bp+0x6]
0032 26 FF 9F AC 00           call far word [es:bx+0xac]
0037 59                       pop cx
0038 59                       pop cx
0039                          ShowMessage(0468) = You find 100 Gold Pieces lying on the floor.
0046 B8 01 00                 mov ax, 0x1
0049 50                       push ax
004A B8 02 00                 mov ax, 0x2
004D 50                       push ax
004E B8 02 00                 mov ax, 0x2
0051 50                       push ax
0052 C4 5E 06                 les bx, [bp+0x6]
0055 26 FF 1F                 call far word [es:bx]
0058 83 C4 06                 add sp, 0x6
005B                          RETURN

Functn05: "GOLDENC"
0000                          BEGIN
0003                          ax = CheckState(02, 03) [es:bx+0xf0]
0014 3D 01 00                 cmp ax, 0x1
0017 75 2E                    jnz 0x47
0019                          ShowMessage(0495) = The room is empty, except for a few rogues.
0026 B8 64 00                 mov ax, 0x64
0029 50                       push ax
002A 33 C0                    xor ax, ax
002C 50                       push ax
002D 33 C0                    xor ax, ax
002F 50                       push ax
0030 33 C0                    xor ax, ax
0032 50                       push ax
0033 33 C0                    xor ax, ax
0035 50                       push ax
0036 B8 B5 00                 mov ax, 0xb5
0039 50                       push ax
003A C4 5E 06                 les bx, [bp+0x6]
003D 26 FF 9F D8 00           call far word [es:bx+0xd8]
0042 83 C4 0C                 add sp, 0xc
0045 EB 42                    jmp 0x89
0047 B8 E8 03                 mov ax, 0x3e8
004A 50                       push ax
004B 33 C0                    xor ax, ax
004D 50                       push ax
004E 33 C0                    xor ax, ax
0050 50                       push ax
0051 33 C0                    xor ax, ax
0053 50                       push ax
0054 B8 CB 00                 mov ax, 0xcb
0057 50                       push ax
0058 B8 CE 00                 mov ax, 0xce
005B 50                       push ax
005C C4 5E 06                 les bx, [bp+0x6]
005F 26 FF 9F D8 00           call far word [es:bx+0xd8]
0064 83 C4 0C                 add sp, 0xc
0067 B8 01 00                 mov ax, 0x1
006A 50                       push ax
006B B8 03 00                 mov ax, 0x3
006E 50                       push ax
006F B8 02 00                 mov ax, 0x2
0072 50                       push ax
0073 C4 5E 06                 les bx, [bp+0x6]
0076 26 FF 1F                 call far word [es:bx]
0079 83 C4 06                 add sp, 0x6
007C                          ShowMessage(04C1) = You encounter Rogues counting their gold.
0089 C4 5E 06                 les bx, [bp+0x6]
008C 26 FF 9F F0 00           call far word [es:bx+0xf0]
0091 3D 01 00                 cmp ax, 0x1
0094 74 0D                    jz 0xa3
0096 C4 5E 06                 les bx, [bp+0x6]
0099 26 FF 9F F0 00           call far word [es:bx+0xf0]
009E 3D 02 00                 cmp ax, 0x2
00A1 75 26                    jnz 0xc9
00A3 B8 13 00                 mov ax, 0x13
00A6 50                       push ax
00A7 B8 01 00                 mov ax, 0x1
00AA 50                       push ax
00AB C4 5E 06                 les bx, [bp+0x6]
00AE 26 FF 9F D4 00           call far word [es:bx+0xd4]
00B3 59                       pop cx
00B4 59                       pop cx
00B5 B8 13 00                 mov ax, 0x13
00B8 50                       push ax
00B9 B8 02 00                 mov ax, 0x2
00BC 50                       push ax
00BD C4 5E 06                 les bx, [bp+0x6]
00C0 26 FF 9F D4 00           call far word [es:bx+0xd4]
00C5 59                       pop cx
00C6 59                       pop cx
00C7 EB 48                    jmp 0x111
00C9 B8 13 00                 mov ax, 0x13
00CC 50                       push ax
00CD B8 01 00                 mov ax, 0x1
00D0 50                       push ax
00D1 C4 5E 06                 les bx, [bp+0x6]
00D4 26 FF 9F D4 00           call far word [es:bx+0xd4]
00D9 59                       pop cx
00DA 59                       pop cx
00DB B8 13 00                 mov ax, 0x13
00DE 50                       push ax
00DF B8 02 00                 mov ax, 0x2
00E2 50                       push ax
00E3 C4 5E 06                 les bx, [bp+0x6]
00E6 26 FF 9F D4 00           call far word [es:bx+0xd4]
00EB 59                       pop cx
00EC 59                       pop cx
00ED B8 14 00                 mov ax, 0x14
00F0 50                       push ax
00F1 B8 03 00                 mov ax, 0x3
00F4 50                       push ax
00F5 C4 5E 06                 les bx, [bp+0x6]
00F8 26 FF 9F D4 00           call far word [es:bx+0xd4]
00FD 59                       pop cx
00FE 59                       pop cx
00FF B8 18 00                 mov ax, 0x18
0102 50                       push ax
0103 B8 06 00                 mov ax, 0x6
0106 50                       push ax
0107 C4 5E 06                 les bx, [bp+0x6]
010A 26 FF 9F D4 00           call far word [es:bx+0xd4]
010F 59                       pop cx
0110 59                       pop cx
0111                          RETURN

Functn06: "LKPKDOOR"
0000                          BEGIN
0003 B8 C4 00                 mov ax, 0xc4
0006 50                       push ax
0007 B8 C2 00                 mov ax, 0xc2
000A 50                       push ax
000B C4 5E 06                 les bx, [bp+0x6]
000E 26 FF 5F 54              call far word [es:bx+0x54]
0012 59                       pop cx
0013 59                       pop cx
0014 0B C0                    or ax, ax
0016 75 11                    jnz 0x29
0018 B8 0E 00                 mov ax, 0xe
001B 50                       push ax
001C C4 5E 06                 les bx, [bp+0x6]
001F 26 FF 5F 58              call far word [es:bx+0x58]
0023 59                       pop cx
0024 3D 05 00                 cmp ax, 0x5
0027 72 43                    jb 0x6c
0029 B8 01 00                 mov ax, 0x1
002C 50                       push ax
002D B8 01 00                 mov ax, 0x1
0030 50                       push ax
0031 C4 5E 06                 les bx, [bp+0x6]
0034 26 FF 5F 20              call far word [es:bx+0x20]
0038 50                       push ax
0039 C4 5E 06                 les bx, [bp+0x6]
003C 26 FF 5F 2C              call far word [es:bx+0x2c]
0040 83 C4 06                 add sp, 0x6
0043 B8 01 00                 mov ax, 0x1
0046 50                       push ax
0047 C4 5E 06                 les bx, [bp+0x6]
004A 26 FF 5F 20              call far word [es:bx+0x20]
004E 50                       push ax
004F B8 01 00                 mov ax, 0x1
0052 50                       push ax
0053 C4 5E 06                 les bx, [bp+0x6]
0056 26 FF 5F 30              call far word [es:bx+0x30]
005A 83 C4 06                 add sp, 0x6
005D                          ShowMessage(04EB) = You successfully picked the locked door.
006A EB 26                    jmp 0x92
006C 33 C0                    xor ax, ax
006E 50                       push ax
006F B8 01 00                 mov ax, 0x1
0072 50                       push ax
0073 C4 5E 06                 les bx, [bp+0x6]
0076 26 FF 5F 20              call far word [es:bx+0x20]
007A 50                       push ax
007B C4 5E 06                 les bx, [bp+0x6]
007E 26 FF 5F 2C              call far word [es:bx+0x2c]
0082 83 C4 06                 add sp, 0x6
0085                          ShowMessage(0514) = The door is locked.
0092                          RETURN

Functn07: "LOWROGUE"
0000                          BEGIN
0003                          ShowMessage(0528) = You encounter Rogues.
0010                          UnknownFunction(000F) [es:bx+0xec]
001D 3D 05 00                 cmp ax, 0x5
0020 77 0F                    ja 0x31
0022                          ShowMessage(053E) = To reach the next level of the dungeon, you need a special key. The key is rumored to be somewhere on this level.
002F EB 1A                    jmp 0x4b
0031                          ShowMessage(05B0) = The Rogues refuse to talk.
003E                          ShowMessage(05CB) = They attack you!
004B C4 5E 06                 les bx, [bp+0x6]
004E 26 FF 9F F0 00           call far word [es:bx+0xf0]
0053 3D 01 00                 cmp ax, 0x1
0056 74 0D                    jz 0x65
0058 C4 5E 06                 les bx, [bp+0x6]
005B 26 FF 9F F0 00           call far word [es:bx+0xf0]
0060 3D 02 00                 cmp ax, 0x2
0063 75 26                    jnz 0x8b
0065 B8 1C 00                 mov ax, 0x1c
0068 50                       push ax
0069 B8 01 00                 mov ax, 0x1
006C 50                       push ax
006D C4 5E 06                 les bx, [bp+0x6]
0070 26 FF 9F D4 00           call far word [es:bx+0xd4]
0075 59                       pop cx
0076 59                       pop cx
0077 B8 1D 00                 mov ax, 0x1d
007A 50                       push ax
007B B8 02 00                 mov ax, 0x2
007E 50                       push ax
007F C4 5E 06                 les bx, [bp+0x6]
0082 26 FF 9F D4 00           call far word [es:bx+0xd4]
0087 59                       pop cx
0088 59                       pop cx
0089 EB 5A                    jmp 0xe5
008B B8 1D 00                 mov ax, 0x1d
008E 50                       push ax
008F B8 01 00                 mov ax, 0x1
0092 50                       push ax
0093 C4 5E 06                 les bx, [bp+0x6]
0096 26 FF 9F D4 00           call far word [es:bx+0xd4]
009B 59                       pop cx
009C 59                       pop cx
009D B8 1D 00                 mov ax, 0x1d
00A0 50                       push ax
00A1 B8 02 00                 mov ax, 0x2
00A4 50                       push ax
00A5 C4 5E 06                 les bx, [bp+0x6]
00A8 26 FF 9F D4 00           call far word [es:bx+0xd4]
00AD 59                       pop cx
00AE 59                       pop cx
00AF B8 1B 00                 mov ax, 0x1b
00B2 50                       push ax
00B3 B8 03 00                 mov ax, 0x3
00B6 50                       push ax
00B7 C4 5E 06                 les bx, [bp+0x6]
00BA 26 FF 9F D4 00           call far word [es:bx+0xd4]
00BF 59                       pop cx
00C0 59                       pop cx
00C1 B8 1B 00                 mov ax, 0x1b
00C4 50                       push ax
00C5 B8 04 00                 mov ax, 0x4
00C8 50                       push ax
00C9 C4 5E 06                 les bx, [bp+0x6]
00CC 26 FF 9F D4 00           call far word [es:bx+0xd4]
00D1 59                       pop cx
00D2 59                       pop cx
00D3 B8 1C 00                 mov ax, 0x1c
00D6 50                       push ax
00D7 B8 05 00                 mov ax, 0x5
00DA 50                       push ax
00DB C4 5E 06                 les bx, [bp+0x6]
00DE 26 FF 9F D4 00           call far word [es:bx+0xd4]
00E3 59                       pop cx
00E4 59                       pop cx
00E5                          RETURN

Functn08: "TUFMNSTR"
0000                          BEGIN
0003 C4 5E 06                 les bx, [bp+0x6]
0006 26 FF 9F F0 00           call far word [es:bx+0xf0]
000B 3D 01 00                 cmp ax, 0x1
000E 75 27                    jnz 0x37
0010 B8 1F 00                 mov ax, 0x1f
0013 50                       push ax
0014 B8 01 00                 mov ax, 0x1
0017 50                       push ax
0018 C4 5E 06                 les bx, [bp+0x6]
001B 26 FF 9F D4 00           call far word [es:bx+0xd4]
0020 59                       pop cx
0021 59                       pop cx
0022 B8 20 00                 mov ax, 0x20
0025 50                       push ax
0026 B8 02 00                 mov ax, 0x2
0029 50                       push ax
002A C4 5E 06                 les bx, [bp+0x6]
002D 26 FF 9F D4 00           call far word [es:bx+0xd4]
0032 59                       pop cx
0033 59                       pop cx
0034 E9 AC 00                 jmp 0xe3
0037 C4 5E 06                 les bx, [bp+0x6]
003A 26 FF 9F F0 00           call far word [es:bx+0xf0]
003F 3D 02 00                 cmp ax, 0x2
0042 74 0D                    jz 0x51
0044 C4 5E 06                 les bx, [bp+0x6]
0047 26 FF 9F F0 00           call far word [es:bx+0xf0]
004C 3D 03 00                 cmp ax, 0x3
004F 75 4A                    jnz 0x9b
0051 B8 1E 00                 mov ax, 0x1e
0054 50                       push ax
0055 B8 01 00                 mov ax, 0x1
0058 50                       push ax
0059 C4 5E 06                 les bx, [bp+0x6]
005C 26 FF 9F D4 00           call far word [es:bx+0xd4]
0061 59                       pop cx
0062 59                       pop cx
0063 B8 1F 00                 mov ax, 0x1f
0066 50                       push ax
0067 B8 02 00                 mov ax, 0x2
006A 50                       push ax
006B C4 5E 06                 les bx, [bp+0x6]
006E 26 FF 9F D4 00           call far word [es:bx+0xd4]
0073 59                       pop cx
0074 59                       pop cx
0075 B8 1E 00                 mov ax, 0x1e
0078 50                       push ax
0079 B8 03 00                 mov ax, 0x3
007C 50                       push ax
007D C4 5E 06                 les bx, [bp+0x6]
0080 26 FF 9F D4 00           call far word [es:bx+0xd4]
0085 59                       pop cx
0086 59                       pop cx
0087 B8 1F 00                 mov ax, 0x1f
008A 50                       push ax
008B B8 04 00                 mov ax, 0x4
008E 50                       push ax
008F C4 5E 06                 les bx, [bp+0x6]
0092 26 FF 9F D4 00           call far word [es:bx+0xd4]
0097 59                       pop cx
0098 59                       pop cx
0099 EB 48                    jmp 0xe3
009B B8 1E 00                 mov ax, 0x1e
009E 50                       push ax
009F B8 01 00                 mov ax, 0x1
00A2 50                       push ax
00A3 C4 5E 06                 les bx, [bp+0x6]
00A6 26 FF 9F D4 00           call far word [es:bx+0xd4]
00AB 59                       pop cx
00AC 59                       pop cx
00AD B8 20 00                 mov ax, 0x20
00B0 50                       push ax
00B1 B8 02 00                 mov ax, 0x2
00B4 50                       push ax
00B5 C4 5E 06                 les bx, [bp+0x6]
00B8 26 FF 9F D4 00           call far word [es:bx+0xd4]
00BD 59                       pop cx
00BE 59                       pop cx
00BF B8 20 00                 mov ax, 0x20
00C2 50                       push ax
00C3 B8 03 00                 mov ax, 0x3
00C6 50                       push ax
00C7 C4 5E 06                 les bx, [bp+0x6]
00CA 26 FF 9F D4 00           call far word [es:bx+0xd4]
00CF 59                       pop cx
00D0 59                       pop cx
00D1 B8 1F 00                 mov ax, 0x1f
00D4 50                       push ax
00D5 B8 04 00                 mov ax, 0x4
00D8 50                       push ax
00D9 C4 5E 06                 les bx, [bp+0x6]
00DC 26 FF 9F D4 00           call far word [es:bx+0xd4]
00E1 59                       pop cx
00E2 59                       pop cx
00E3                          RETURN

Functn09: "LCPKENC"
0000                          BEGIN
0003                          ax = HasItem(D2) ? 1 : 0 [es:bx+0x50]
0011 74 2E                    jz 0x41
0013                          ShowMessage(05DC) = Cro-Lizards snarl at you.
0020 B8 2C 01                 mov ax, 0x12c
0023 50                       push ax
0024 33 C0                    xor ax, ax
0026 50                       push ax
0027 33 C0                    xor ax, ax
0029 50                       push ax
002A 33 C0                    xor ax, ax
002C 50                       push ax
002D 33 C0                    xor ax, ax
002F 50                       push ax
0030 B8 CE 00                 mov ax, 0xce
0033 50                       push ax
0034 C4 5E 06                 les bx, [bp+0x6]
0037 26 FF 9F D8 00           call far word [es:bx+0xd8]
003C 83 C4 0C                 add sp, 0xc
003F EB 2C                    jmp 0x6d
0041 B8 2C 01                 mov ax, 0x12c
0044 50                       push ax
0045 33 C0                    xor ax, ax
0047 50                       push ax
0048 33 C0                    xor ax, ax
004A 50                       push ax
004B 33 C0                    xor ax, ax
004D 50                       push ax
004E 33 C0                    xor ax, ax
0050 50                       push ax
0051 B8 D2 00                 mov ax, 0xd2
0054 50                       push ax
0055 C4 5E 06                 les bx, [bp+0x6]
0058 26 FF 9F D8 00           call far word [es:bx+0xd8]
005D 83 C4 0C                 add sp, 0xc
0060                          ShowMessage(05F6) = You see an interesting lockpick on the floor. On the shaft are the words - Property of King Cleowyn. The Cro-Lizards you see are also interested in the lockpick.
006D C4 5E 06                 les bx, [bp+0x6]
0070 26 FF 9F F0 00           call far word [es:bx+0xf0]
0075 3D 01 00                 cmp ax, 0x1
0078 75 15                    jnz 0x8f
007A B8 1E 00                 mov ax, 0x1e
007D 50                       push ax
007E B8 01 00                 mov ax, 0x1
0081 50                       push ax
0082 C4 5E 06                 les bx, [bp+0x6]
0085 26 FF 9F D4 00           call far word [es:bx+0xd4]
008A 59                       pop cx
008B 59                       pop cx
008C E9 F7 00                 jmp 0x186
008F C4 5E 06                 les bx, [bp+0x6]
0092 26 FF 9F F0 00           call far word [es:bx+0xf0]
0097 3D 02 00                 cmp ax, 0x2
009A 75 39                    jnz 0xd5
009C B8 1E 00                 mov ax, 0x1e
009F 50                       push ax
00A0 B8 01 00                 mov ax, 0x1
00A3 50                       push ax
00A4 C4 5E 06                 les bx, [bp+0x6]
00A7 26 FF 9F D4 00           call far word [es:bx+0xd4]
00AC 59                       pop cx
00AD 59                       pop cx
00AE B8 1E 00                 mov ax, 0x1e
00B1 50                       push ax
00B2 B8 02 00                 mov ax, 0x2
00B5 50                       push ax
00B6 C4 5E 06                 les bx, [bp+0x6]
00B9 26 FF 9F D4 00           call far word [es:bx+0xd4]
00BE 59                       pop cx
00BF 59                       pop cx
00C0 B8 1E 00                 mov ax, 0x1e
00C3 50                       push ax
00C4 B8 04 00                 mov ax, 0x4
00C7 50                       push ax
00C8 C4 5E 06                 les bx, [bp+0x6]
00CB 26 FF 9F D4 00           call far word [es:bx+0xd4]
00D0 59                       pop cx
00D1 59                       pop cx
00D2 E9 B1 00                 jmp 0x186
00D5 C4 5E 06                 les bx, [bp+0x6]
00D8 26 FF 9F F0 00           call far word [es:bx+0xf0]
00DD 3D 03 00                 cmp ax, 0x3
00E0 75 4A                    jnz 0x12c
00E2 B8 1E 00                 mov ax, 0x1e
00E5 50                       push ax
00E6 B8 01 00                 mov ax, 0x1
00E9 50                       push ax
00EA C4 5E 06                 les bx, [bp+0x6]
00ED 26 FF 9F D4 00           call far word [es:bx+0xd4]
00F2 59                       pop cx
00F3 59                       pop cx
00F4 B8 1E 00                 mov ax, 0x1e
00F7 50                       push ax
00F8 B8 02 00                 mov ax, 0x2
00FB 50                       push ax
00FC C4 5E 06                 les bx, [bp+0x6]
00FF 26 FF 9F D4 00           call far word [es:bx+0xd4]
0104 59                       pop cx
0105 59                       pop cx
0106 B8 1E 00                 mov ax, 0x1e
0109 50                       push ax
010A B8 03 00                 mov ax, 0x3
010D 50                       push ax
010E C4 5E 06                 les bx, [bp+0x6]
0111 26 FF 9F D4 00           call far word [es:bx+0xd4]
0116 59                       pop cx
0117 59                       pop cx
0118 B8 1E 00                 mov ax, 0x1e
011B 50                       push ax
011C B8 04 00                 mov ax, 0x4
011F 50                       push ax
0120 C4 5E 06                 les bx, [bp+0x6]
0123 26 FF 9F D4 00           call far word [es:bx+0xd4]
0128 59                       pop cx
0129 59                       pop cx
012A EB 5A                    jmp 0x186
012C B8 1E 00                 mov ax, 0x1e
012F 50                       push ax
0130 B8 01 00                 mov ax, 0x1
0133 50                       push ax
0134 C4 5E 06                 les bx, [bp+0x6]
0137 26 FF 9F D4 00           call far word [es:bx+0xd4]
013C 59                       pop cx
013D 59                       pop cx
013E B8 1E 00                 mov ax, 0x1e
0141 50                       push ax
0142 B8 02 00                 mov ax, 0x2
0145 50                       push ax
0146 C4 5E 06                 les bx, [bp+0x6]
0149 26 FF 9F D4 00           call far word [es:bx+0xd4]
014E 59                       pop cx
014F 59                       pop cx
0150 B8 1E 00                 mov ax, 0x1e
0153 50                       push ax
0154 B8 03 00                 mov ax, 0x3
0157 50                       push ax
0158 C4 5E 06                 les bx, [bp+0x6]
015B 26 FF 9F D4 00           call far word [es:bx+0xd4]
0160 59                       pop cx
0161 59                       pop cx
0162 B8 1E 00                 mov ax, 0x1e
0165 50                       push ax
0166 B8 04 00                 mov ax, 0x4
0169 50                       push ax
016A C4 5E 06                 les bx, [bp+0x6]
016D 26 FF 9F D4 00           call far word [es:bx+0xd4]
0172 59                       pop cx
0173 59                       pop cx
0174 B8 1E 00                 mov ax, 0x1e
0177 50                       push ax
0178 B8 05 00                 mov ax, 0x5
017B 50                       push ax
017C C4 5E 06                 les bx, [bp+0x6]
017F 26 FF 9F D4 00           call far word [es:bx+0xd4]
0184 59                       pop cx
0185 59                       pop cx
0186                          RETURN

Functn0A: "KEYDOOR"
0000                          BEGIN
0003 B8 D3 00                 mov ax, 0xd3
0006 50                       push ax
0007 B8 D3 00                 mov ax, 0xd3
000A 50                       push ax
000B C4 5E 06                 les bx, [bp+0x6]
000E 26 FF 5F 54              call far word [es:bx+0x54]
0012 59                       pop cx
0013 59                       pop cx
0014 0B C0                    or ax, ax
0016 74 3D                    jz 0x55
0018 B8 01 00                 mov ax, 0x1
001B 50                       push ax
001C 33 C0                    xor ax, ax
001E 50                       push ax
001F B8 04 00                 mov ax, 0x4
0022 50                       push ax
0023 C4 5E 06                 les bx, [bp+0x6]
0026 26 FF 5F 2C              call far word [es:bx+0x2c]
002A 83 C4 06                 add sp, 0x6
002D 33 C0                    xor ax, ax
002F 50                       push ax
0030 C4 5E 06                 les bx, [bp+0x6]
0033 26 FF 5F 20              call far word [es:bx+0x20]
0037 50                       push ax
0038 B8 01 00                 mov ax, 0x1
003B 50                       push ax
003C C4 5E 06                 les bx, [bp+0x6]
003F 26 FF 5F 30              call far word [es:bx+0x30]
0043 83 C4 06                 add sp, 0x6
0046                          ShowMessage(0698) = King Cleowyn's Key unlocks the door.
0053 EB 21                    jmp 0x76
0055                          ShowMessage(06BD) = The door is locked.  A special key opens this door.
0062 33 C0                    xor ax, ax
0064 50                       push ax
0065 33 C0                    xor ax, ax
0067 50                       push ax
0068 B8 04 00                 mov ax, 0x4
006B 50                       push ax
006C C4 5E 06                 les bx, [bp+0x6]
006F 26 FF 5F 2C              call far word [es:bx+0x2c]
0073 83 C4 06                 add sp, 0x6
0076                          RETURN

Functn0B: "KEYENC"
0000                          BEGIN
0003                          ax = HasItem(D3) ? 1 : 0 [es:bx+0x50]
0011 74 2E                    jz 0x41
0013 B8 C8 00                 mov ax, 0xc8
0016 50                       push ax
0017 33 C0                    xor ax, ax
0019 50                       push ax
001A 33 C0                    xor ax, ax
001C 50                       push ax
001D 33 C0                    xor ax, ax
001F 50                       push ax
0020 33 C0                    xor ax, ax
0022 50                       push ax
0023 B8 B5 00                 mov ax, 0xb5
0026 50                       push ax
0027 C4 5E 06                 les bx, [bp+0x6]
002A 26 FF 9F D8 00           call far word [es:bx+0xd8]
002F 83 C4 0C                 add sp, 0xc
0032                          ShowMessage(06F1) = Some rather nasty monsters hang out here.
003F EB 39                    jmp 0x7a
0041 B8 C8 00                 mov ax, 0xc8
0044 50                       push ax
0045 33 C0                    xor ax, ax
0047 50                       push ax
0048 33 C0                    xor ax, ax
004A 50                       push ax
004B 33 C0                    xor ax, ax
004D 50                       push ax
004E 33 C0                    xor ax, ax
0050 50                       push ax
0051 B8 D3 00                 mov ax, 0xd3
0054 50                       push ax
0055 C4 5E 06                 les bx, [bp+0x6]
0058 26 FF 9F D8 00           call far word [es:bx+0xd8]
005D 83 C4 0C                 add sp, 0xc
0060                          ShowMessage(071B) = On the floor is a key. The grasp bears the Galabryan insignia and the initials KC. It must have belonged to King Cleowyn.  
006D                          ShowMessage(0797) = Between you and the key are monsters.
007A C4 5E 06                 les bx, [bp+0x6]
007D 26 FF 9F F0 00           call far word [es:bx+0xf0]
0082 3D 01 00                 cmp ax, 0x1
0085 75 15                    jnz 0x9c
0087 B8 1F 00                 mov ax, 0x1f
008A 50                       push ax
008B B8 01 00                 mov ax, 0x1
008E 50                       push ax
008F C4 5E 06                 les bx, [bp+0x6]
0092 26 FF 9F D4 00           call far word [es:bx+0xd4]
0097 59                       pop cx
0098 59                       pop cx
0099 E9 E5 00                 jmp 0x181
009C C4 5E 06                 les bx, [bp+0x6]
009F 26 FF 9F F0 00           call far word [es:bx+0xf0]
00A4 3D 02 00                 cmp ax, 0x2
00A7 75 27                    jnz 0xd0
00A9 B8 1F 00                 mov ax, 0x1f
00AC 50                       push ax
00AD B8 01 00                 mov ax, 0x1
00B0 50                       push ax
00B1 C4 5E 06                 les bx, [bp+0x6]
00B4 26 FF 9F D4 00           call far word [es:bx+0xd4]
00B9 59                       pop cx
00BA 59                       pop cx
00BB B8 20 00                 mov ax, 0x20
00BE 50                       push ax
00BF B8 02 00                 mov ax, 0x2
00C2 50                       push ax
00C3 C4 5E 06                 les bx, [bp+0x6]
00C6 26 FF 9F D4 00           call far word [es:bx+0xd4]
00CB 59                       pop cx
00CC 59                       pop cx
00CD E9 B1 00                 jmp 0x181
00D0 C4 5E 06                 les bx, [bp+0x6]
00D3 26 FF 9F F0 00           call far word [es:bx+0xf0]
00D8 3D 03 00                 cmp ax, 0x3
00DB 75 4A                    jnz 0x127
00DD B8 1F 00                 mov ax, 0x1f
00E0 50                       push ax
00E1 B8 01 00                 mov ax, 0x1
00E4 50                       push ax
00E5 C4 5E 06                 les bx, [bp+0x6]
00E8 26 FF 9F D4 00           call far word [es:bx+0xd4]
00ED 59                       pop cx
00EE 59                       pop cx
00EF B8 1F 00                 mov ax, 0x1f
00F2 50                       push ax
00F3 B8 02 00                 mov ax, 0x2
00F6 50                       push ax
00F7 C4 5E 06                 les bx, [bp+0x6]
00FA 26 FF 9F D4 00           call far word [es:bx+0xd4]
00FF 59                       pop cx
0100 59                       pop cx
0101 B8 20 00                 mov ax, 0x20
0104 50                       push ax
0105 B8 03 00                 mov ax, 0x3
0108 50                       push ax
0109 C4 5E 06                 les bx, [bp+0x6]
010C 26 FF 9F D4 00           call far word [es:bx+0xd4]
0111 59                       pop cx
0112 59                       pop cx
0113 B8 20 00                 mov ax, 0x20
0116 50                       push ax
0117 B8 04 00                 mov ax, 0x4
011A 50                       push ax
011B C4 5E 06                 les bx, [bp+0x6]
011E 26 FF 9F D4 00           call far word [es:bx+0xd4]
0123 59                       pop cx
0124 59                       pop cx
0125 EB 5A                    jmp 0x181
0127 B8 20 00                 mov ax, 0x20
012A 50                       push ax
012B B8 01 00                 mov ax, 0x1
012E 50                       push ax
012F C4 5E 06                 les bx, [bp+0x6]
0132 26 FF 9F D4 00           call far word [es:bx+0xd4]
0137 59                       pop cx
0138 59                       pop cx
0139 B8 20 00                 mov ax, 0x20
013C 50                       push ax
013D B8 02 00                 mov ax, 0x2
0140 50                       push ax
0141 C4 5E 06                 les bx, [bp+0x6]
0144 26 FF 9F D4 00           call far word [es:bx+0xd4]
0149 59                       pop cx
014A 59                       pop cx
014B B8 1F 00                 mov ax, 0x1f
014E 50                       push ax
014F B8 03 00                 mov ax, 0x3
0152 50                       push ax
0153 C4 5E 06                 les bx, [bp+0x6]
0156 26 FF 9F D4 00           call far word [es:bx+0xd4]
015B 59                       pop cx
015C 59                       pop cx
015D B8 1F 00                 mov ax, 0x1f
0160 50                       push ax
0161 B8 04 00                 mov ax, 0x4
0164 50                       push ax
0165 C4 5E 06                 les bx, [bp+0x6]
0168 26 FF 9F D4 00           call far word [es:bx+0xd4]
016D 59                       pop cx
016E 59                       pop cx
016F B8 1F 00                 mov ax, 0x1f
0172 50                       push ax
0173 B8 06 00                 mov ax, 0x6
0176 50                       push ax
0177 C4 5E 06                 les bx, [bp+0x6]
017A 26 FF 9F D4 00           call far word [es:bx+0xd4]
017F 59                       pop cx
0180 59                       pop cx
0181                          RETURN

Functn0C: "STRDOOR"
0000                          BEGIN
0003 33 C0                    xor ax, ax
0005 50                       push ax
0006 C4 5E 06                 les bx, [bp+0x6]
0009 26 FF 9F A4 00           call far word [es:bx+0xa4]
000E 59                       pop cx
000F 3D 0A 00                 cmp ax, 0xa
0012 72 4B                    jb 0x5f
0014                          ShowMessage(07BD) = You manage to open the door by brute strength.
0021 C4 5E 06                 les bx, [bp+0x6]
0024 26 FF 5F 24              call far word [es:bx+0x24]
0028 50                       push ax
0029 C4 5E 06                 les bx, [bp+0x6]
002C 26 FF 5F 20              call far word [es:bx+0x20]
0030 50                       push ax
0031 B8 01 00                 mov ax, 0x1
0034 50                       push ax
0035 C4 5E 06                 les bx, [bp+0x6]
0038 26 FF 5F 30              call far word [es:bx+0x30]
003C 83 C4 06                 add sp, 0x6
003F B8 01 00                 mov ax, 0x1
0042 50                       push ax
0043 C4 5E 06                 les bx, [bp+0x6]
0046 26 FF 5F 24              call far word [es:bx+0x24]
004A 50                       push ax
004B C4 5E 06                 les bx, [bp+0x6]
004E 26 FF 5F 20              call far word [es:bx+0x20]
0052 50                       push ax
0053 C4 5E 06                 les bx, [bp+0x6]
0056 26 FF 5F 2C              call far word [es:bx+0x2c]
005A 83 C4 06                 add sp, 0x6
005D EB 2A                    jmp 0x89
005F                          ShowMessage(07EC) = You are not strong enough to force the door open.
006C 33 C0                    xor ax, ax
006E 50                       push ax
006F C4 5E 06                 les bx, [bp+0x6]
0072 26 FF 5F 24              call far word [es:bx+0x24]
0076 50                       push ax
0077 C4 5E 06                 les bx, [bp+0x6]
007A 26 FF 5F 20              call far word [es:bx+0x20]
007E 50                       push ax
007F C4 5E 06                 les bx, [bp+0x6]
0082 26 FF 5F 2C              call far word [es:bx+0x2c]
0086 83 C4 06                 add sp, 0x6
0089                          RETURN

Functn0D: "TOVEST"
0000                          BEGIN
0003                          GoMap(02, 70, 03, 01)
001E                          RETURN

Functn0E: "MODMNSTR"
0000                          BEGIN
0003                          ShowMessage(081E) = You encounter Rogues.
0010                          UnknownFunction(000F) [es:bx+0xec]
001D 3D 07 00                 cmp ax, 0x7
0020 77 2E                    ja 0x50
0022                          ShowMessage(0834) = The imps that haunt the dungeon frequently return gold and lost items to their original places.
002F B8 C8 00                 mov ax, 0xc8
0032 50                       push ax
0033 33 C0                    xor ax, ax
0035 50                       push ax
0036 33 C0                    xor ax, ax
0038 50                       push ax
0039 33 C0                    xor ax, ax
003B 50                       push ax
003C 33 C0                    xor ax, ax
003E 50                       push ax
003F B8 B5 00                 mov ax, 0xb5
0042 50                       push ax
0043 C4 5E 06                 les bx, [bp+0x6]
0046 26 FF 9F D8 00           call far word [es:bx+0xd8]
004B 83 C4 0C                 add sp, 0xc
004E EB 39                    jmp 0x89
0050                          ShowMessage(0894) = The Rogues refuse to talk.
005D                          ShowMessage(08AF) = They charge you!
006A B8 C8 00                 mov ax, 0xc8
006D 50                       push ax
006E 33 C0                    xor ax, ax
0070 50                       push ax
0071 33 C0                    xor ax, ax
0073 50                       push ax
0074 33 C0                    xor ax, ax
0076 50                       push ax
0077 33 C0                    xor ax, ax
0079 50                       push ax
007A B8 02 00                 mov ax, 0x2
007D 50                       push ax
007E C4 5E 06                 les bx, [bp+0x6]
0081 26 FF 9F D8 00           call far word [es:bx+0xd8]
0086 83 C4 0C                 add sp, 0xc
0089 C4 5E 06                 les bx, [bp+0x6]
008C 26 FF 9F F0 00           call far word [es:bx+0xf0]
0091 3D 01 00                 cmp ax, 0x1
0094 74 0D                    jz 0xa3
0096 C4 5E 06                 les bx, [bp+0x6]
0099 26 FF 9F F0 00           call far word [es:bx+0xf0]
009E 3D 02 00                 cmp ax, 0x2
00A1 75 26                    jnz 0xc9
00A3 B8 23 00                 mov ax, 0x23
00A6 50                       push ax
00A7 B8 01 00                 mov ax, 0x1
00AA 50                       push ax
00AB C4 5E 06                 les bx, [bp+0x6]
00AE 26 FF 9F D4 00           call far word [es:bx+0xd4]
00B3 59                       pop cx
00B4 59                       pop cx
00B5 B8 22 00                 mov ax, 0x22
00B8 50                       push ax
00B9 B8 02 00                 mov ax, 0x2
00BC 50                       push ax
00BD C4 5E 06                 les bx, [bp+0x6]
00C0 26 FF 9F D4 00           call far word [es:bx+0xd4]
00C5 59                       pop cx
00C6 59                       pop cx
00C7 EB 62                    jmp 0x12b
00C9 C4 5E 06                 les bx, [bp+0x6]
00CC 26 FF 9F F0 00           call far word [es:bx+0xf0]
00D1 3D 03 00                 cmp ax, 0x3
00D4 74 0D                    jz 0xe3
00D6 C4 5E 06                 les bx, [bp+0x6]
00D9 26 FF 9F F0 00           call far word [es:bx+0xf0]
00DE 3D 04 00                 cmp ax, 0x4
00E1 75 48                    jnz 0x12b
00E3 B8 22 00                 mov ax, 0x22
00E6 50                       push ax
00E7 B8 01 00                 mov ax, 0x1
00EA 50                       push ax
00EB C4 5E 06                 les bx, [bp+0x6]
00EE 26 FF 9F D4 00           call far word [es:bx+0xd4]
00F3 59                       pop cx
00F4 59                       pop cx
00F5 B8 23 00                 mov ax, 0x23
00F8 50                       push ax
00F9 B8 02 00                 mov ax, 0x2
00FC 50                       push ax
00FD C4 5E 06                 les bx, [bp+0x6]
0100 26 FF 9F D4 00           call far word [es:bx+0xd4]
0105 59                       pop cx
0106 59                       pop cx
0107 B8 23 00                 mov ax, 0x23
010A 50                       push ax
010B B8 03 00                 mov ax, 0x3
010E 50                       push ax
010F C4 5E 06                 les bx, [bp+0x6]
0112 26 FF 9F D4 00           call far word [es:bx+0xd4]
0117 59                       pop cx
0118 59                       pop cx
0119 B8 21 00                 mov ax, 0x21
011C 50                       push ax
011D B8 05 00                 mov ax, 0x5
0120 50                       push ax
0121 C4 5E 06                 les bx, [bp+0x6]
0124 26 FF 9F D4 00           call far word [es:bx+0xd4]
0129 59                       pop cx
012A 59                       pop cx
012B                          RETURN

Functn0F: "HRDMONST"
0000                          BEGIN
0003 56                       push si
0004 BE 01 00                 mov si, 0x1
0007 EB 10                    jmp 0x19
0009 B8 13 00                 mov ax, 0x13
000C 50                       push ax
000D 56                       push si
000E C4 5E 06                 les bx, [bp+0x6]
0011 26 FF 9F D4 00           call far word [es:bx+0xd4]
0016 59                       pop cx
0017 59                       pop cx
0018 46                       inc si
0019 C4 5E 06                 les bx, [bp+0x6]
001C 26 FF 9F F0 00           call far word [es:bx+0xf0]
0021 3B C6                    cmp ax, si
0023 73 E4                    jae 0x9
0025 5E                       pop si
0026                          RETURN

Functn10: "WEAPENC"
0000                          BEGIN
0003                          ax = CheckState(02, 04) [es:bx+0xf0]
0014 3D 01 00                 cmp ax, 0x1
0017 75 2E                    jnz 0x47
0019                          ShowMessage(08C0) = You find nothing interesting in the room except a vial and some monsters.
0026 B8 C8 00                 mov ax, 0xc8
0029 50                       push ax
002A 33 C0                    xor ax, ax
002C 50                       push ax
002D 33 C0                    xor ax, ax
002F 50                       push ax
0030 33 C0                    xor ax, ax
0032 50                       push ax
0033 33 C0                    xor ax, ax
0035 50                       push ax
0036 B8 B5 00                 mov ax, 0xb5
0039 50                       push ax
003A C4 5E 06                 les bx, [bp+0x6]
003D 26 FF 9F D8 00           call far word [es:bx+0xd8]
0042 83 C4 0C                 add sp, 0xc
0045 EB 2D                    jmp 0x74
0047 B8 C8 00                 mov ax, 0xc8
004A 50                       push ax
004B 33 C0                    xor ax, ax
004D 50                       push ax
004E 33 C0                    xor ax, ax
0050 50                       push ax
0051 33 C0                    xor ax, ax
0053 50                       push ax
0054 B8 B7 00                 mov ax, 0xb7
0057 50                       push ax
0058 B8 18 00                 mov ax, 0x18
005B 50                       push ax
005C C4 5E 06                 les bx, [bp+0x6]
005F 26 FF 9F D8 00           call far word [es:bx+0xd8]
0064 83 C4 0C                 add sp, 0xc
0067                          ShowMessage(090A) = You notice an axe and a vial on the floor. You also notice some Bronze Ogres.
0074 C4 5E 06                 les bx, [bp+0x6]
0077 26 FF 9F F0 00           call far word [es:bx+0xf0]
007C 3D 01 00                 cmp ax, 0x1
007F 75 15                    jnz 0x96
0081 B8 26 00                 mov ax, 0x26
0084 50                       push ax
0085 B8 01 00                 mov ax, 0x1
0088 50                       push ax
0089 C4 5E 06                 les bx, [bp+0x6]
008C 26 FF 9F D4 00           call far word [es:bx+0xd4]
0091 59                       pop cx
0092 59                       pop cx
0093 E9 C1 00                 jmp 0x157
0096 C4 5E 06                 les bx, [bp+0x6]
0099 26 FF 9F F0 00           call far word [es:bx+0xf0]
009E 3D 02 00                 cmp ax, 0x2
00A1 75 27                    jnz 0xca
00A3 B8 26 00                 mov ax, 0x26
00A6 50                       push ax
00A7 B8 01 00                 mov ax, 0x1
00AA 50                       push ax
00AB C4 5E 06                 les bx, [bp+0x6]
00AE 26 FF 9F D4 00           call far word [es:bx+0xd4]
00B3 59                       pop cx
00B4 59                       pop cx
00B5 B8 26 00                 mov ax, 0x26
00B8 50                       push ax
00B9 B8 02 00                 mov ax, 0x2
00BC 50                       push ax
00BD C4 5E 06                 les bx, [bp+0x6]
00C0 26 FF 9F D4 00           call far word [es:bx+0xd4]
00C5 59                       pop cx
00C6 59                       pop cx
00C7 E9 8D 00                 jmp 0x157
00CA C4 5E 06                 les bx, [bp+0x6]
00CD 26 FF 9F F0 00           call far word [es:bx+0xf0]
00D2 3D 03 00                 cmp ax, 0x3
00D5 75 38                    jnz 0x10f
00D7 B8 26 00                 mov ax, 0x26
00DA 50                       push ax
00DB B8 01 00                 mov ax, 0x1
00DE 50                       push ax
00DF C4 5E 06                 les bx, [bp+0x6]
00E2 26 FF 9F D4 00           call far word [es:bx+0xd4]
00E7 59                       pop cx
00E8 59                       pop cx
00E9 B8 26 00                 mov ax, 0x26
00EC 50                       push ax
00ED B8 02 00                 mov ax, 0x2
00F0 50                       push ax
00F1 C4 5E 06                 les bx, [bp+0x6]
00F4 26 FF 9F D4 00           call far word [es:bx+0xd4]
00F9 59                       pop cx
00FA 59                       pop cx
00FB B8 26 00                 mov ax, 0x26
00FE 50                       push ax
00FF B8 03 00                 mov ax, 0x3
0102 50                       push ax
0103 C4 5E 06                 les bx, [bp+0x6]
0106 26 FF 9F D4 00           call far word [es:bx+0xd4]
010B 59                       pop cx
010C 59                       pop cx
010D EB 48                    jmp 0x157
010F B8 26 00                 mov ax, 0x26
0112 50                       push ax
0113 B8 01 00                 mov ax, 0x1
0116 50                       push ax
0117 C4 5E 06                 les bx, [bp+0x6]
011A 26 FF 9F D4 00           call far word [es:bx+0xd4]
011F 59                       pop cx
0120 59                       pop cx
0121 B8 26 00                 mov ax, 0x26
0124 50                       push ax
0125 B8 02 00                 mov ax, 0x2
0128 50                       push ax
0129 C4 5E 06                 les bx, [bp+0x6]
012C 26 FF 9F D4 00           call far word [es:bx+0xd4]
0131 59                       pop cx
0132 59                       pop cx
0133 B8 26 00                 mov ax, 0x26
0136 50                       push ax
0137 B8 03 00                 mov ax, 0x3
013A 50                       push ax
013B C4 5E 06                 les bx, [bp+0x6]
013E 26 FF 9F D4 00           call far word [es:bx+0xd4]
0143 59                       pop cx
0144 59                       pop cx
0145 B8 26 00                 mov ax, 0x26
0148 50                       push ax
0149 B8 04 00                 mov ax, 0x4
014C 50                       push ax
014D C4 5E 06                 les bx, [bp+0x6]
0150 26 FF 9F D4 00           call far word [es:bx+0xd4]
0155 59                       pop cx
0156 59                       pop cx
0157                          RETURN

Functn11: "PITA"
0000                          BEGIN
0003                          ax = CheckLevel(000F) ? 1 : 0 [es:bx+0x44]
0011 75 03                    jnz 0x16
0013 E9 9D 00                 jmp 0xb3
0016 C4 5E 06                 les bx, [bp+0x6]
0019 26 FF 5F 20              call far word [es:bx+0x20]
001D 50                       push ax
001E B8 01 00                 mov ax, 0x1
0021 50                       push ax
0022 C4 5E 06                 les bx, [bp+0x6]
0025 26 FF 5F 38              call far word [es:bx+0x38]
0029 59                       pop cx
002A 59                       pop cx
002B                          ShowMessage(0958) = You fall into a pit.
0038                          ShowMessage(096D) = You take heavy damage from the long, long fall.
0045 C4 5E 06                 les bx, [bp+0x6]
0048 26 FF 9F F0 00           call far word [es:bx+0xf0]
004D 3D 01 00                 cmp ax, 0x1
0050 75 2A                    jnz 0x7c
0052 B8 2C 01                 mov ax, 0x12c
0055 50                       push ax
0056 C4 5E 06                 les bx, [bp+0x6]
0059 26 FF 9F 90 00           call far word [es:bx+0x90]
005E 59                       pop cx
005F                          GoMap(03, 11, 03, 05)
007A EB 35                    jmp 0xb1
007C                          ShowMessage(099D) = Since you are the first to land, your body provides a soft mattress for the rest of your party.
0089 B8 C2 01                 mov ax, 0x1c2
008C 50                       push ax
008D C4 5E 06                 les bx, [bp+0x6]
0090 26 FF 9F 90 00           call far word [es:bx+0x90]
0095 59                       pop cx
0096                          GoMap(03, 11, 03, 05)
00B1 EB 35                    jmp 0xe8
00B3                          ShowMessage(09FD) = A kindly spirit rescues you from falling to your death.
00C0                          ShowMessage(0A35) = It warns you to stay away from danger until you are stronger.
00CD                          GoMap(01, 67, 02, 01)
00E8                          RETURN

Functn12: "SECDOOR"
0000                          BEGIN
0003 B8 0D 00                 mov ax, 0xd
0006 50                       push ax
0007 C4 5E 06                 les bx, [bp+0x6]
000A 26 FF 5F 58              call far word [es:bx+0x58]
000E 59                       pop cx
000F 3D 08 00                 cmp ax, 0x8
0012 73 4F                    jae 0x63
0014 B8 17 00                 mov ax, 0x17
0017 50                       push ax
0018 C4 5E 06                 les bx, [bp+0x6]
001B 26 FF 5F 64              call far word [es:bx+0x64]
001F 59                       pop cx
0020 0B C0                    or ax, ax
0022 75 3F                    jnz 0x63
0024 B8 A2 00                 mov ax, 0xa2
0027 50                       push ax
0028 B8 A2 00                 mov ax, 0xa2
002B 50                       push ax
002C C4 5E 06                 les bx, [bp+0x6]
002F 26 FF 5F 54              call far word [es:bx+0x54]
0033 59                       pop cx
0034 59                       pop cx
0035 0B C0                    or ax, ax
0037 75 2A                    jnz 0x63
0039 B8 BD 00                 mov ax, 0xbd
003C 50                       push ax
003D B8 BD 00                 mov ax, 0xbd
0040 50                       push ax
0041 C4 5E 06                 les bx, [bp+0x6]
0044 26 FF 5F 54              call far word [es:bx+0x54]
0048 59                       pop cx
0049 59                       pop cx
004A 0B C0                    or ax, ax
004C 75 15                    jnz 0x63
004E B8 BE 00                 mov ax, 0xbe
0051 50                       push ax
0052 B8 BE 00                 mov ax, 0xbe
0055 50                       push ax
0056 C4 5E 06                 les bx, [bp+0x6]
0059 26 FF 5F 54              call far word [es:bx+0x54]
005D 59                       pop cx
005E 59                       pop cx
005F 0B C0                    or ax, ax
0061 74 3B                    jz 0x9e
0063                          ShowMessage(0A73) = You detect a secret door in the wall.
0070 B8 02 00                 mov ax, 0x2
0073 50                       push ax
0074 B8 ED 00                 mov ax, 0xed
0077 50                       push ax
0078 B8 01 00                 mov ax, 0x1
007B 50                       push ax
007C C4 5E 06                 les bx, [bp+0x6]
007F 26 FF 5F 30              call far word [es:bx+0x30]
0083 83 C4 06                 add sp, 0x6
0086 B8 01 00                 mov ax, 0x1
0089 50                       push ax
008A B8 02 00                 mov ax, 0x2
008D 50                       push ax
008E B8 ED 00                 mov ax, 0xed
0091 50                       push ax
0092 C4 5E 06                 les bx, [bp+0x6]
0095 26 FF 5F 2C              call far word [es:bx+0x2c]
0099 83 C4 06                 add sp, 0x6
009C EB 22                    jmp 0xc0
009E                          ShowMessage(0A99) = You see a blank wall.
00AB 33 C0                    xor ax, ax
00AD 50                       push ax
00AE B8 02 00                 mov ax, 0x2
00B1 50                       push ax
00B2 B8 ED 00                 mov ax, 0xed
00B5 50                       push ax
00B6 C4 5E 06                 les bx, [bp+0x6]
00B9 26 FF 5F 2C              call far word [es:bx+0x2c]
00BD 83 C4 06                 add sp, 0x6
00C0                          RETURN

Functn13: ""
0000                          BEGIN
0003                          ShowMessage(0AAF) = The gateway leads to THE DUNGEON ENTRANCE.
0010                          RETURN

Functn14: ""
0000                          BEGIN
0003                          ShowMessage(0ADA) = The gateway leads to THE VESTIBULE.
0010                          RETURN

Functn15: "PITB"
0000                          BEGIN
0003                          ax = CheckLevel(000F) ? 1 : 0 [es:bx+0x44]
0011 75 03                    jnz 0x16
0013 E9 9D 00                 jmp 0xb3
0016 C4 5E 06                 les bx, [bp+0x6]
0019 26 FF 5F 20              call far word [es:bx+0x20]
001D 50                       push ax
001E B8 01 00                 mov ax, 0x1
0021 50                       push ax
0022 C4 5E 06                 les bx, [bp+0x6]
0025 26 FF 5F 38              call far word [es:bx+0x38]
0029 59                       pop cx
002A 59                       pop cx
002B                          ShowMessage(0AFE) = You fall into a pit.
0038                          ShowMessage(0B13) = You take heavy damage from the long, long fall.
0045 C4 5E 06                 les bx, [bp+0x6]
0048 26 FF 9F F0 00           call far word [es:bx+0xf0]
004D 3D 01 00                 cmp ax, 0x1
0050 75 2A                    jnz 0x7c
0052 B8 2C 01                 mov ax, 0x12c
0055 50                       push ax
0056 C4 5E 06                 les bx, [bp+0x6]
0059 26 FF 9F 90 00           call far word [es:bx+0x90]
005E 59                       pop cx
005F                          GoMap(03, 12, 03, 05)
007A EB 35                    jmp 0xb1
007C                          ShowMessage(0B43) = Since you are the first to land, your body provides a soft mattress for the rest of your party.
0089 B8 C2 01                 mov ax, 0x1c2
008C 50                       push ax
008D C4 5E 06                 les bx, [bp+0x6]
0090 26 FF 9F 90 00           call far word [es:bx+0x90]
0095 59                       pop cx
0096                          GoMap(03, 12, 03, 05)
00B1 EB 34                    jmp 0xe7
00B3                          ShowMessage(0BA3) = A kindly spirit rescues you from falling to your death.
00C0                          ShowMessage(0BDB) = It warns you to stay away from danger until you are stronger.
00CD                          GoMap(00, 69, 02, 01)
00E7                          RETURN

Functn16: "PITC"
0000                          BEGIN
0003                          ax = CheckLevel(000F) ? 1 : 0 [es:bx+0x44]
0011 75 03                    jnz 0x16
0013 E9 9D 00                 jmp 0xb3
0016 C4 5E 06                 les bx, [bp+0x6]
0019 26 FF 5F 20              call far word [es:bx+0x20]
001D 50                       push ax
001E B8 01 00                 mov ax, 0x1
0021 50                       push ax
0022 C4 5E 06                 les bx, [bp+0x6]
0025 26 FF 5F 38              call far word [es:bx+0x38]
0029 59                       pop cx
002A 59                       pop cx
002B                          ShowMessage(0C19) = You fall into a pit.
0038                          ShowMessage(0C2E) = You take heavy damage from the long, long fall.
0045 C4 5E 06                 les bx, [bp+0x6]
0048 26 FF 9F F0 00           call far word [es:bx+0xf0]
004D 3D 01 00                 cmp ax, 0x1
0050 75 2A                    jnz 0x7c
0052 B8 2C 01                 mov ax, 0x12c
0055 50                       push ax
0056 C4 5E 06                 les bx, [bp+0x6]
0059 26 FF 9F 90 00           call far word [es:bx+0x90]
005E 59                       pop cx
005F                          GoMap(01, 21, 03, 05)
007A EB 35                    jmp 0xb1
007C                          ShowMessage(0C5E) = Since you are the first to land, your body provides a soft mattress for the rest of your party.
0089 B8 C2 01                 mov ax, 0x1c2
008C 50                       push ax
008D C4 5E 06                 les bx, [bp+0x6]
0090 26 FF 9F 90 00           call far word [es:bx+0x90]
0095 59                       pop cx
0096                          GoMap(01, 21, 03, 05)
00B1 EB 35                    jmp 0xe8
00B3                          ShowMessage(0CBE) = A kindly spirit rescues you from falling to your death.
00C0                          ShowMessage(0CF6) = It warns you to stay away from danger until you are stronger.
00CD                          GoMap(02, 76, 02, 01)
00E8                          RETURN

Functn17: "PITD"
0000                          BEGIN
0003                          ax = CheckLevel(000F) ? 1 : 0 [es:bx+0x44]
0011 75 03                    jnz 0x16
0013 E9 9B 00                 jmp 0xb1
0016 C4 5E 06                 les bx, [bp+0x6]
0019 26 FF 5F 20              call far word [es:bx+0x20]
001D 50                       push ax
001E B8 01 00                 mov ax, 0x1
0021 50                       push ax
0022 C4 5E 06                 les bx, [bp+0x6]
0025 26 FF 5F 38              call far word [es:bx+0x38]
0029 59                       pop cx
002A 59                       pop cx
002B                          ShowMessage(0D34) = You fall into a pit.
0038                          ShowMessage(0D49) = You take heavy damage from the long, long fall.
0045 C4 5E 06                 les bx, [bp+0x6]
0048 26 FF 9F F0 00           call far word [es:bx+0xf0]
004D 3D 01 00                 cmp ax, 0x1
0050 75 29                    jnz 0x7b
0052 B8 2C 01                 mov ax, 0x12c
0055 50                       push ax
0056 C4 5E 06                 les bx, [bp+0x6]
0059 26 FF 9F 90 00           call far word [es:bx+0x90]
005E 59                       pop cx
005F                          GoMap(00, 22, 03, 05)
0079 EB 34                    jmp 0xaf
007B                          ShowMessage(0D79) = Since you are the first to land, your body provides a soft mattress for the rest of your party.
0088 B8 C2 01                 mov ax, 0x1c2
008B 50                       push ax
008C C4 5E 06                 les bx, [bp+0x6]
008F 26 FF 9F 90 00           call far word [es:bx+0x90]
0094 59                       pop cx
0095                          GoMap(00, 22, 03, 05)
00AF EB 34                    jmp 0xe5
00B1                          ShowMessage(0DD9) = A kindly spirit rescues you from falling to your death.
00BE                          ShowMessage(0E11) = It warns you to stay away from danger until you are stronger.
00CB                          GoMap(00, 79, 02, 01)
00E5                          RETURN

Functn18: "TELEMESA"
0000                          BEGIN
0003 C4 5E 06                 les bx, [bp+0x6]
0006 26 FF 9F E0 00           call far word [es:bx+0xe0]
000B                          ShowMessage(0E4F) = There is a teleport in the west wall.
0018                          RETURN

Functn19: "NPCCHATA"
0000                          BEGIN
0003                          ShowMessage(0E75) = You encounter an Orc Ranger.
0010                          ShowPortrait(001E)
001D                          UnknownFunction(000F) [es:bx+0xec]
002A 3D 09 00                 cmp ax, 0x9
002D 77 0F                    ja 0x3e
002F                          ShowMessage(0E92) = King Cleowyn had a special lockpick which opened a set of doors in the Vestibule, leading to his Palace. He was the king of thieves, or so my father told me.
003C EB 0D                    jmp 0x4b
003E                          ShowMessage(0F30) = The Orc Ranger ignores you and wanders off.
004B                          RETURN

Functn1A: "NPCCHATB"
0000                          BEGIN
0003                          ShowMessage(0F5C) = You encounter a Human Wizard.
0010                          ShowPortrait(002B)
001D                          UnknownFunction(000F) [es:bx+0xec]
002A 3D 04 00                 cmp ax, 0x4
002D 77 0F                    ja 0x3e
002F                          ShowMessage(0F7A) = The lone adventurer is often at a disadvantage in this cursed dungeon. Those deeper levels...oh, they are very dangerous, indeed.
003C EB 0D                    jmp 0x4b
003E                          ShowMessage(0FFC) = The Human Wizard turns his back on you.
004B                          RETURN

Functn1B: "NPCCHATC"
0000                          BEGIN
0003                          ShowMessage(1024) = You encounter a Dwarf Knight.
0010                          ShowPortrait(001C)
001D                          UnknownFunction(000F) [es:bx+0xec]
002A 3D 0A 00                 cmp ax, 0xa
002D 77 0F                    ja 0x3e
002F                          ShowMessage(1042) = There are rumors of a fantastic treasury which King Cleowyn visited each night to count his ill-gotten tax revenues.
003C EB 0D                    jmp 0x4b
003E                          ShowMessage(10B7) = The Dwarf Knight seems uninterested in you and turns away.
004B                          RETURN

Functn1C: "NPCCHATD"
0000                          BEGIN
0003                          ShowMessage(10F2) = You encounter a Troll Cleric.
0010                          ShowPortrait(0028)
001D                          UnknownFunction(000F) [es:bx+0xec]
002A 3D 0C 00                 cmp ax, 0xc
002D 77 1C                    ja 0x4b
002F                          ShowMessage(1110) = Being able to detect hidden traps and doors is important for any party of adventurers wandering this dungeon.
003C                          ShowMessage(117E) = Also, keep an eye open for better lockpicks. They will open doors to new wonders.
0049 EB 1A                    jmp 0x65
004B                          ShowMessage(11D0) = The Troll Cleric is annoyed that you disturbed her reverie. She raps you on the head with her staff and marches off.
0058 B8 03 00                 mov ax, 0x3
005B 50                       push ax
005C C4 5E 06                 les bx, [bp+0x6]
005F 26 FF 9F 90 00           call far word [es:bx+0x90]
0064 59                       pop cx
0065                          RETURN

Functn1D: "NPCCHATE"
0000                          BEGIN
0003                          ShowMessage(1245) = You encounter a Human Thief.
0010                          ShowPortrait(0022)
001D                          UnknownFunction(000F) [es:bx+0xec]
002A 3D 0B 00                 cmp ax, 0xb
002D 77 1C                    ja 0x4b
002F                          ShowMessage(1262) = The upper levels of this dungeon make up the Palace of King Cleowyn. He was a cruel ruler and was hated by all.
003C                          ShowMessage(12D2) = Beware of the many traps and pitfalls in and around the Palace. Not even the most clever thief can escape Cleowyn's traps.
0049 EB 0D                    jmp 0x58
004B                          ShowMessage(134D) = The Human Thief slithers away without saying a word.
0058                          RETURN

Functn1E: "NPCCHATF"
0000                          BEGIN
0003                          ShowMessage(1382) = You encounter an Elf Barbarian.
0010                          ShowPortrait(0018)
001D                          UnknownFunction(000F) [es:bx+0xec]
002A 3D 0C 00                 cmp ax, 0xc
002D 77 0F                    ja 0x3e
002F                          ShowMessage(13A2) = Beware the pit to be found at the heart of the mine. Only the very strongest can survive the fall into the deep abyss.
003C EB 0D                    jmp 0x4b
003E                          ShowMessage(1419) = The Elf Barbarian trudges off to kill some monsters.
004B                          RETURN

