Functn01: "TOMINES"
0000                          BEGIN
0003                          GoMap(00, 7F, 02, 01)
001D                          RETURN

Functn02: "TOTREAS"
0000                          BEGIN
0003                          GoMap(01, 05, 04, 01)
001E                          RETURN

Functn03: "KEYDOOR"
0000                          BEGIN
0003 33 C0                    xor ax, ax
0005 50                       push ax
0006 B8 02 00                 mov ax, 0x2
0009 50                       push ax
000A C4 5E 06                 les bx, [bp+0x6]
000D 26 FF 5F 04              call far word [es:bx+0x4]
0011 59                       pop cx
0012 59                       pop cx
0013 3D 01 00                 cmp ax, 0x1
0016 75 4B                    jnz 0x63
0018                          ShowMessage(03FC) = Cleowyn's Key has unlocked the door.
0025 C4 5E 06                 les bx, [bp+0x6]
0028 26 FF 5F 24              call far word [es:bx+0x24]
002C 50                       push ax
002D C4 5E 06                 les bx, [bp+0x6]
0030 26 FF 5F 20              call far word [es:bx+0x20]
0034 50                       push ax
0035 B8 01 00                 mov ax, 0x1
0038 50                       push ax
0039 C4 5E 06                 les bx, [bp+0x6]
003C 26 FF 5F 30              call far word [es:bx+0x30]
0040 83 C4 06                 add sp, 0x6
0043 B8 01 00                 mov ax, 0x1
0046 50                       push ax
0047 C4 5E 06                 les bx, [bp+0x6]
004A 26 FF 5F 24              call far word [es:bx+0x24]
004E 50                       push ax
004F C4 5E 06                 les bx, [bp+0x6]
0052 26 FF 5F 20              call far word [es:bx+0x20]
0056 50                       push ax
0057 C4 5E 06                 les bx, [bp+0x6]
005A 26 FF 5F 2C              call far word [es:bx+0x2c]
005E 83 C4 06                 add sp, 0x6
0061 EB 2A                    jmp 0x8d
0063                          ShowMessage(0421) = The door is locked.  Something special is needed to open this door.
0070 33 C0                    xor ax, ax
0072 50                       push ax
0073 C4 5E 06                 les bx, [bp+0x6]
0076 26 FF 5F 24              call far word [es:bx+0x24]
007A 50                       push ax
007B C4 5E 06                 les bx, [bp+0x6]
007E 26 FF 5F 20              call far word [es:bx+0x20]
0082 50                       push ax
0083 C4 5E 06                 les bx, [bp+0x6]
0086 26 FF 5F 2C              call far word [es:bx+0x2c]
008A 83 C4 06                 add sp, 0x6
008D                          RETURN

Functn04: "KEYMESSG"
0000                          BEGIN
0003                          ShowMessage(0465) = The tapestry shows a message in runes...
0010                          ShowRunes(5004) [es:bx+0xf4] = A certain Key unlocks my series of doors.
001D                          RETURN

Functn05: "LKPKDOOR"
0000                          BEGIN
0003 33 C0                    xor ax, ax
0005 50                       push ax
0006 B8 02 00                 mov ax, 0x2
0009 50                       push ax
000A C4 5E 06                 les bx, [bp+0x6]
000D 26 FF 5F 04              call far word [es:bx+0x4]
0011 59                       pop cx
0012 59                       pop cx
0013 3D 02 00                 cmp ax, 0x2
0016 75 4B                    jnz 0x63
0018                          ShowMessage(04B8) = Cleowyn's Lockpick has unlocked the door.
0025 C4 5E 06                 les bx, [bp+0x6]
0028 26 FF 5F 24              call far word [es:bx+0x24]
002C 50                       push ax
002D C4 5E 06                 les bx, [bp+0x6]
0030 26 FF 5F 20              call far word [es:bx+0x20]
0034 50                       push ax
0035 B8 01 00                 mov ax, 0x1
0038 50                       push ax
0039 C4 5E 06                 les bx, [bp+0x6]
003C 26 FF 5F 30              call far word [es:bx+0x30]
0040 83 C4 06                 add sp, 0x6
0043 B8 01 00                 mov ax, 0x1
0046 50                       push ax
0047 C4 5E 06                 les bx, [bp+0x6]
004A 26 FF 5F 24              call far word [es:bx+0x24]
004E 50                       push ax
004F C4 5E 06                 les bx, [bp+0x6]
0052 26 FF 5F 20              call far word [es:bx+0x20]
0056 50                       push ax
0057 C4 5E 06                 les bx, [bp+0x6]
005A 26 FF 5F 2C              call far word [es:bx+0x2c]
005E 83 C4 06                 add sp, 0x6
0061 EB 2A                    jmp 0x8d
0063                          ShowMessage(04E2) = The door is locked.
0070 33 C0                    xor ax, ax
0072 50                       push ax
0073 C4 5E 06                 les bx, [bp+0x6]
0076 26 FF 5F 24              call far word [es:bx+0x24]
007A 50                       push ax
007B C4 5E 06                 les bx, [bp+0x6]
007E 26 FF 5F 20              call far word [es:bx+0x20]
0082 50                       push ax
0083 C4 5E 06                 les bx, [bp+0x6]
0086 26 FF 5F 2C              call far word [es:bx+0x2c]
008A 83 C4 06                 add sp, 0x6
008D                          RETURN

Functn06: "LKPKMESG"
0000                          BEGIN
0003                          ShowMessage(04F6) = There are runes on the tapestry...
0010                          ShowRunes(5005) [es:bx+0xf4] = A certain Lockpick opens my series of doors.
001D                          RETURN

Functn07: "STRDOOR"
0000                          BEGIN
0003 33 C0                    xor ax, ax
0005 50                       push ax
0006 B8 02 00                 mov ax, 0x2
0009 50                       push ax
000A C4 5E 06                 les bx, [bp+0x6]
000D 26 FF 5F 04              call far word [es:bx+0x4]
0011 59                       pop cx
0012 59                       pop cx
0013 3D 03 00                 cmp ax, 0x3
0016 75 4B                    jnz 0x63
0018                          ShowMessage(0546) = The door has been forced open.
0025 C4 5E 06                 les bx, [bp+0x6]
0028 26 FF 5F 24              call far word [es:bx+0x24]
002C 50                       push ax
002D C4 5E 06                 les bx, [bp+0x6]
0030 26 FF 5F 20              call far word [es:bx+0x20]
0034 50                       push ax
0035 B8 01 00                 mov ax, 0x1
0038 50                       push ax
0039 C4 5E 06                 les bx, [bp+0x6]
003C 26 FF 5F 30              call far word [es:bx+0x30]
0040 83 C4 06                 add sp, 0x6
0043 B8 01 00                 mov ax, 0x1
0046 50                       push ax
0047 C4 5E 06                 les bx, [bp+0x6]
004A 26 FF 5F 24              call far word [es:bx+0x24]
004E 50                       push ax
004F C4 5E 06                 les bx, [bp+0x6]
0052 26 FF 5F 20              call far word [es:bx+0x20]
0056 50                       push ax
0057 C4 5E 06                 les bx, [bp+0x6]
005A 26 FF 5F 2C              call far word [es:bx+0x2c]
005E 83 C4 06                 add sp, 0x6
0061 EB 2A                    jmp 0x8d
0063                          ShowMessage(0565) = The door is currently impassable.
0070 33 C0                    xor ax, ax
0072 50                       push ax
0073 C4 5E 06                 les bx, [bp+0x6]
0076 26 FF 5F 24              call far word [es:bx+0x24]
007A 50                       push ax
007B C4 5E 06                 les bx, [bp+0x6]
007E 26 FF 5F 20              call far word [es:bx+0x20]
0082 50                       push ax
0083 C4 5E 06                 les bx, [bp+0x6]
0086 26 FF 5F 2C              call far word [es:bx+0x2c]
008A 83 C4 06                 add sp, 0x6
008D                          RETURN

Functn08: "STRMESSG"
0000                          BEGIN
0003                          ShowMessage(0587) = The tapestry has runes...
0010                          ShowRunes(5005) [es:bx+0xf4] = A hero of strength may open my series of doors.
001D                          RETURN

Functn09: "GOLDENC"
0000                          BEGIN
0003                          ax = CheckState(02, 05) [es:bx+0xf0]
0014 3D 01 00                 cmp ax, 0x1
0017 75 2E                    jnz 0x47
0019                          ShowMessage(05D1) = Aside from angry Rogues, the room is empty.
0026 B8 14 00                 mov ax, 0x14
0029 50                       push ax
002A 33 C0                    xor ax, ax
002C 50                       push ax
002D 33 C0                    xor ax, ax
002F 50                       push ax
0030 33 C0                    xor ax, ax
0032 50                       push ax
0033 33 C0                    xor ax, ax
0035 50                       push ax
0036 B8 B5 00                 mov ax, 0xb5
0039 50                       push ax
003A C4 5E 06                 les bx, [bp+0x6]
003D 26 FF 9F D8 00           call far word [es:bx+0xd8]
0042 83 C4 0C                 add sp, 0xc
0045 EB 41                    jmp 0x88
0047 B8 F4 01                 mov ax, 0x1f4
004A 50                       push ax
004B 33 C0                    xor ax, ax
004D 50                       push ax
004E 33 C0                    xor ax, ax
0050 50                       push ax
0051 33 C0                    xor ax, ax
0053 50                       push ax
0054 33 C0                    xor ax, ax
0056 50                       push ax
0057 B8 CE 00                 mov ax, 0xce
005A 50                       push ax
005B C4 5E 06                 les bx, [bp+0x6]
005E 26 FF 9F D8 00           call far word [es:bx+0xd8]
0063 83 C4 0C                 add sp, 0xc
0066 B8 01 00                 mov ax, 0x1
0069 50                       push ax
006A B8 05 00                 mov ax, 0x5
006D 50                       push ax
006E B8 02 00                 mov ax, 0x2
0071 50                       push ax
0072 C4 5E 06                 les bx, [bp+0x6]
0075 26 FF 1F                 call far word [es:bx]
0078 83 C4 06                 add sp, 0x6
007B                          ShowMessage(05FD) = A Rogue drops gold coins on the floor as the villains draw their weapons.
0088 C4 5E 06                 les bx, [bp+0x6]
008B 26 FF 9F F0 00           call far word [es:bx+0xf0]
0090 3D 01 00                 cmp ax, 0x1
0093 74 0D                    jz 0xa2
0095 C4 5E 06                 les bx, [bp+0x6]
0098 26 FF 9F F0 00           call far word [es:bx+0xf0]
009D 3D 02 00                 cmp ax, 0x2
00A0 75 14                    jnz 0xb6
00A2 B8 1A 00                 mov ax, 0x1a
00A5 50                       push ax
00A6 B8 01 00                 mov ax, 0x1
00A9 50                       push ax
00AA C4 5E 06                 les bx, [bp+0x6]
00AD 26 FF 9F D4 00           call far word [es:bx+0xd4]
00B2 59                       pop cx
00B3 59                       pop cx
00B4 EB 48                    jmp 0xfe
00B6 B8 1C 00                 mov ax, 0x1c
00B9 50                       push ax
00BA B8 01 00                 mov ax, 0x1
00BD 50                       push ax
00BE C4 5E 06                 les bx, [bp+0x6]
00C1 26 FF 9F D4 00           call far word [es:bx+0xd4]
00C6 59                       pop cx
00C7 59                       pop cx
00C8 B8 1A 00                 mov ax, 0x1a
00CB 50                       push ax
00CC B8 02 00                 mov ax, 0x2
00CF 50                       push ax
00D0 C4 5E 06                 les bx, [bp+0x6]
00D3 26 FF 9F D4 00           call far word [es:bx+0xd4]
00D8 59                       pop cx
00D9 59                       pop cx
00DA B8 19 00                 mov ax, 0x19
00DD 50                       push ax
00DE B8 03 00                 mov ax, 0x3
00E1 50                       push ax
00E2 C4 5E 06                 les bx, [bp+0x6]
00E5 26 FF 9F D4 00           call far word [es:bx+0xd4]
00EA 59                       pop cx
00EB 59                       pop cx
00EC B8 1B 00                 mov ax, 0x1b
00EF 50                       push ax
00F0 B8 04 00                 mov ax, 0x4
00F3 50                       push ax
00F4 C4 5E 06                 les bx, [bp+0x6]
00F7 26 FF 9F D4 00           call far word [es:bx+0xd4]
00FC 59                       pop cx
00FD 59                       pop cx
00FE                          RETURN

Functn0A: "STAIRS"
0000                          BEGIN
0003                          GoMap(02, 01, 02, 02)
001E                          RETURN

Functn0B: "PALKEYEN"
0000                          BEGIN
0003                          ax = HasItem(D9) ? 1 : 0 [es:bx+0x50]
0011 74 2F                    jz 0x42
0013 B8 F4 01                 mov ax, 0x1f4
0016 50                       push ax
0017 33 C0                    xor ax, ax
0019 50                       push ax
001A 33 C0                    xor ax, ax
001C 50                       push ax
001D 33 C0                    xor ax, ax
001F 50                       push ax
0020 B8 BC 00                 mov ax, 0xbc
0023 50                       push ax
0024 B8 CE 00                 mov ax, 0xce
0027 50                       push ax
0028 C4 5E 06                 les bx, [bp+0x6]
002B 26 FF 9F D8 00           call far word [es:bx+0xd8]
0030 83 C4 0C                 add sp, 0xc
0033                          ShowMessage(0647) = The room is empty. Almost.
0040 EB 2C                    jmp 0x6e
0042 B8 E8 03                 mov ax, 0x3e8
0045 50                       push ax
0046 33 C0                    xor ax, ax
0048 50                       push ax
0049 33 C0                    xor ax, ax
004B 50                       push ax
004C 33 C0                    xor ax, ax
004E 50                       push ax
004F 33 C0                    xor ax, ax
0051 50                       push ax
0052 B8 D9 00                 mov ax, 0xd9
0055 50                       push ax
0056 C4 5E 06                 les bx, [bp+0x6]
0059 26 FF 9F D8 00           call far word [es:bx+0xd8]
005E 83 C4 0C                 add sp, 0xc
0061                          ShowMessage(0662) = A Key in the shape of a Palace lies in a corner, if you can get to it.
006E C4 5E 06                 les bx, [bp+0x6]
0071 26 FF 9F F0 00           call far word [es:bx+0xf0]
0076 3D 01 00                 cmp ax, 0x1
0079 75 15                    jnz 0x90
007B B8 21 00                 mov ax, 0x21
007E 50                       push ax
007F B8 01 00                 mov ax, 0x1
0082 50                       push ax
0083 C4 5E 06                 les bx, [bp+0x6]
0086 26 FF 9F D4 00           call far word [es:bx+0xd4]
008B 59                       pop cx
008C 59                       pop cx
008D E9 C1 00                 jmp 0x151
0090 C4 5E 06                 les bx, [bp+0x6]
0093 26 FF 9F F0 00           call far word [es:bx+0xf0]
0098 3D 02 00                 cmp ax, 0x2
009B 75 27                    jnz 0xc4
009D B8 25 00                 mov ax, 0x25
00A0 50                       push ax
00A1 B8 01 00                 mov ax, 0x1
00A4 50                       push ax
00A5 C4 5E 06                 les bx, [bp+0x6]
00A8 26 FF 9F D4 00           call far word [es:bx+0xd4]
00AD 59                       pop cx
00AE 59                       pop cx
00AF B8 21 00                 mov ax, 0x21
00B2 50                       push ax
00B3 B8 02 00                 mov ax, 0x2
00B6 50                       push ax
00B7 C4 5E 06                 les bx, [bp+0x6]
00BA 26 FF 9F D4 00           call far word [es:bx+0xd4]
00BF 59                       pop cx
00C0 59                       pop cx
00C1 E9 8D 00                 jmp 0x151
00C4 C4 5E 06                 les bx, [bp+0x6]
00C7 26 FF 9F F0 00           call far word [es:bx+0xf0]
00CC 3D 03 00                 cmp ax, 0x3
00CF 75 38                    jnz 0x109
00D1 B8 21 00                 mov ax, 0x21
00D4 50                       push ax
00D5 B8 01 00                 mov ax, 0x1
00D8 50                       push ax
00D9 C4 5E 06                 les bx, [bp+0x6]
00DC 26 FF 9F D4 00           call far word [es:bx+0xd4]
00E1 59                       pop cx
00E2 59                       pop cx
00E3 B8 21 00                 mov ax, 0x21
00E6 50                       push ax
00E7 B8 02 00                 mov ax, 0x2
00EA 50                       push ax
00EB C4 5E 06                 les bx, [bp+0x6]
00EE 26 FF 9F D4 00           call far word [es:bx+0xd4]
00F3 59                       pop cx
00F4 59                       pop cx
00F5 B8 25 00                 mov ax, 0x25
00F8 50                       push ax
00F9 B8 04 00                 mov ax, 0x4
00FC 50                       push ax
00FD C4 5E 06                 les bx, [bp+0x6]
0100 26 FF 9F D4 00           call far word [es:bx+0xd4]
0105 59                       pop cx
0106 59                       pop cx
0107 EB 48                    jmp 0x151
0109 B8 25 00                 mov ax, 0x25
010C 50                       push ax
010D B8 01 00                 mov ax, 0x1
0110 50                       push ax
0111 C4 5E 06                 les bx, [bp+0x6]
0114 26 FF 9F D4 00           call far word [es:bx+0xd4]
0119 59                       pop cx
011A 59                       pop cx
011B B8 25 00                 mov ax, 0x25
011E 50                       push ax
011F B8 02 00                 mov ax, 0x2
0122 50                       push ax
0123 C4 5E 06                 les bx, [bp+0x6]
0126 26 FF 9F D4 00           call far word [es:bx+0xd4]
012B 59                       pop cx
012C 59                       pop cx
012D B8 21 00                 mov ax, 0x21
0130 50                       push ax
0131 B8 03 00                 mov ax, 0x3
0134 50                       push ax
0135 C4 5E 06                 les bx, [bp+0x6]
0138 26 FF 9F D4 00           call far word [es:bx+0xd4]
013D 59                       pop cx
013E 59                       pop cx
013F B8 21 00                 mov ax, 0x21
0142 50                       push ax
0143 B8 04 00                 mov ax, 0x4
0146 50                       push ax
0147 C4 5E 06                 les bx, [bp+0x6]
014A 26 FF 9F D4 00           call far word [es:bx+0xd4]
014F 59                       pop cx
0150 59                       pop cx
0151                          RETURN

Functn0C: "TELEPORT"
0000                          BEGIN
0003                          GoMap(03, F0, 01, 04)
001E                          RETURN

Functn0D: "LOWMNSTR"
0000                          BEGIN
0003                          ShowMessage(06A9) = You encounter Rogues.
0010                          UnknownFunction(000F) [es:bx+0xec]
001D 3D 06 00                 cmp ax, 0x6
0020 77 2E                    ja 0x50
0022 B8 F4 01                 mov ax, 0x1f4
0025 50                       push ax
0026 33 C0                    xor ax, ax
0028 50                       push ax
0029 33 C0                    xor ax, ax
002B 50                       push ax
002C 33 C0                    xor ax, ax
002E 50                       push ax
002F 33 C0                    xor ax, ax
0031 50                       push ax
0032 B8 B5 00                 mov ax, 0xb5
0035 50                       push ax
0036 C4 5E 06                 les bx, [bp+0x6]
0039 26 FF 9F D8 00           call far word [es:bx+0xd8]
003E 83 C4 0C                 add sp, 0xc
0041                          ShowMessage(06BF) = If you are skilled enough, you may find teleports that speed your way to various levels of this dungeon.
004E EB 3A                    jmp 0x8a
0050                          ShowMessage(0728) = The Rogues snarl at you.
005D                          ShowMessage(0741) = They attack!
006A B8 E8 03                 mov ax, 0x3e8
006D 50                       push ax
006E 33 C0                    xor ax, ax
0070 50                       push ax
0071 33 C0                    xor ax, ax
0073 50                       push ax
0074 33 C0                    xor ax, ax
0076 50                       push ax
0077 B8 BD 00                 mov ax, 0xbd
007A 50                       push ax
007B B8 03 00                 mov ax, 0x3
007E 50                       push ax
007F C4 5E 06                 les bx, [bp+0x6]
0082 26 FF 9F D8 00           call far word [es:bx+0xd8]
0087 83 C4 0C                 add sp, 0xc
008A C4 5E 06                 les bx, [bp+0x6]
008D 26 FF 9F F0 00           call far word [es:bx+0xf0]
0092 3D 01 00                 cmp ax, 0x1
0095 74 0D                    jz 0xa4
0097 C4 5E 06                 les bx, [bp+0x6]
009A 26 FF 9F F0 00           call far word [es:bx+0xf0]
009F 3D 02 00                 cmp ax, 0x2
00A2 75 26                    jnz 0xca
00A4 B8 1B 00                 mov ax, 0x1b
00A7 50                       push ax
00A8 B8 01 00                 mov ax, 0x1
00AB 50                       push ax
00AC C4 5E 06                 les bx, [bp+0x6]
00AF 26 FF 9F D4 00           call far word [es:bx+0xd4]
00B4 59                       pop cx
00B5 59                       pop cx
00B6 B8 1A 00                 mov ax, 0x1a
00B9 50                       push ax
00BA B8 02 00                 mov ax, 0x2
00BD 50                       push ax
00BE C4 5E 06                 les bx, [bp+0x6]
00C1 26 FF 9F D4 00           call far word [es:bx+0xd4]
00C6 59                       pop cx
00C7 59                       pop cx
00C8 EB 48                    jmp 0x112
00CA B8 1C 00                 mov ax, 0x1c
00CD 50                       push ax
00CE B8 01 00                 mov ax, 0x1
00D1 50                       push ax
00D2 C4 5E 06                 les bx, [bp+0x6]
00D5 26 FF 9F D4 00           call far word [es:bx+0xd4]
00DA 59                       pop cx
00DB 59                       pop cx
00DC B8 1A 00                 mov ax, 0x1a
00DF 50                       push ax
00E0 B8 02 00                 mov ax, 0x2
00E3 50                       push ax
00E4 C4 5E 06                 les bx, [bp+0x6]
00E7 26 FF 9F D4 00           call far word [es:bx+0xd4]
00EC 59                       pop cx
00ED 59                       pop cx
00EE B8 19 00                 mov ax, 0x19
00F1 50                       push ax
00F2 B8 03 00                 mov ax, 0x3
00F5 50                       push ax
00F6 C4 5E 06                 les bx, [bp+0x6]
00F9 26 FF 9F D4 00           call far word [es:bx+0xd4]
00FE 59                       pop cx
00FF 59                       pop cx
0100 B8 1B 00                 mov ax, 0x1b
0103 50                       push ax
0104 B8 04 00                 mov ax, 0x4
0107 50                       push ax
0108 C4 5E 06                 les bx, [bp+0x6]
010B 26 FF 9F D4 00           call far word [es:bx+0xd4]
0110 59                       pop cx
0111 59                       pop cx
0112                          RETURN

Functn0E: "MODMNSTR"
0000                          BEGIN
0003 C4 5E 06                 les bx, [bp+0x6]
0006 26 FF 9F F0 00           call far word [es:bx+0xf0]
000B 3D 01 00                 cmp ax, 0x1
000E 75 14                    jnz 0x24
0010 B8 1D 00                 mov ax, 0x1d
0013 50                       push ax
0014 B8 01 00                 mov ax, 0x1
0017 50                       push ax
0018 C4 5E 06                 les bx, [bp+0x6]
001B 26 FF 9F D4 00           call far word [es:bx+0xd4]
0020 59                       pop cx
0021 59                       pop cx
0022 EB 7B                    jmp 0x9f
0024 C4 5E 06                 les bx, [bp+0x6]
0027 26 FF 9F F0 00           call far word [es:bx+0xf0]
002C 3D 02 00                 cmp ax, 0x2
002F 75 26                    jnz 0x57
0031 B8 1D 00                 mov ax, 0x1d
0034 50                       push ax
0035 B8 01 00                 mov ax, 0x1
0038 50                       push ax
0039 C4 5E 06                 les bx, [bp+0x6]
003C 26 FF 9F D4 00           call far word [es:bx+0xd4]
0041 59                       pop cx
0042 59                       pop cx
0043 B8 1E 00                 mov ax, 0x1e
0046 50                       push ax
0047 B8 02 00                 mov ax, 0x2
004A 50                       push ax
004B C4 5E 06                 les bx, [bp+0x6]
004E 26 FF 9F D4 00           call far word [es:bx+0xd4]
0053 59                       pop cx
0054 59                       pop cx
0055 EB 48                    jmp 0x9f
0057 B8 20 00                 mov ax, 0x20
005A 50                       push ax
005B B8 01 00                 mov ax, 0x1
005E 50                       push ax
005F C4 5E 06                 les bx, [bp+0x6]
0062 26 FF 9F D4 00           call far word [es:bx+0xd4]
0067 59                       pop cx
0068 59                       pop cx
0069 B8 1F 00                 mov ax, 0x1f
006C 50                       push ax
006D B8 02 00                 mov ax, 0x2
0070 50                       push ax
0071 C4 5E 06                 les bx, [bp+0x6]
0074 26 FF 9F D4 00           call far word [es:bx+0xd4]
0079 59                       pop cx
007A 59                       pop cx
007B B8 1C 00                 mov ax, 0x1c
007E 50                       push ax
007F B8 03 00                 mov ax, 0x3
0082 50                       push ax
0083 C4 5E 06                 les bx, [bp+0x6]
0086 26 FF 9F D4 00           call far word [es:bx+0xd4]
008B 59                       pop cx
008C 59                       pop cx
008D B8 1D 00                 mov ax, 0x1d
0090 50                       push ax
0091 B8 04 00                 mov ax, 0x4
0094 50                       push ax
0095 C4 5E 06                 les bx, [bp+0x6]
0098 26 FF 9F D4 00           call far word [es:bx+0xd4]
009D 59                       pop cx
009E 59                       pop cx
009F                          RETURN

Functn0F: "STRMNST"
0000                          BEGIN
0003 C4 5E 06                 les bx, [bp+0x6]
0006 26 FF 9F F0 00           call far word [es:bx+0xf0]
000B 3D 01 00                 cmp ax, 0x1
000E 75 15                    jnz 0x25
0010 B8 21 00                 mov ax, 0x21
0013 50                       push ax
0014 B8 01 00                 mov ax, 0x1
0017 50                       push ax
0018 C4 5E 06                 les bx, [bp+0x6]
001B 26 FF 9F D4 00           call far word [es:bx+0xd4]
0020 59                       pop cx
0021 59                       pop cx
0022 E9 E5 00                 jmp 0x10a
0025 C4 5E 06                 les bx, [bp+0x6]
0028 26 FF 9F F0 00           call far word [es:bx+0xf0]
002D 3D 02 00                 cmp ax, 0x2
0030 75 27                    jnz 0x59
0032 B8 21 00                 mov ax, 0x21
0035 50                       push ax
0036 B8 01 00                 mov ax, 0x1
0039 50                       push ax
003A C4 5E 06                 les bx, [bp+0x6]
003D 26 FF 9F D4 00           call far word [es:bx+0xd4]
0042 59                       pop cx
0043 59                       pop cx
0044 B8 22 00                 mov ax, 0x22
0047 50                       push ax
0048 B8 02 00                 mov ax, 0x2
004B 50                       push ax
004C C4 5E 06                 les bx, [bp+0x6]
004F 26 FF 9F D4 00           call far word [es:bx+0xd4]
0054 59                       pop cx
0055 59                       pop cx
0056 E9 B1 00                 jmp 0x10a
0059 C4 5E 06                 les bx, [bp+0x6]
005C 26 FF 9F F0 00           call far word [es:bx+0xf0]
0061 3D 03 00                 cmp ax, 0x3
0064 75 4A                    jnz 0xb0
0066 B8 21 00                 mov ax, 0x21
0069 50                       push ax
006A B8 01 00                 mov ax, 0x1
006D 50                       push ax
006E C4 5E 06                 les bx, [bp+0x6]
0071 26 FF 9F D4 00           call far word [es:bx+0xd4]
0076 59                       pop cx
0077 59                       pop cx
0078 B8 21 00                 mov ax, 0x21
007B 50                       push ax
007C B8 02 00                 mov ax, 0x2
007F 50                       push ax
0080 C4 5E 06                 les bx, [bp+0x6]
0083 26 FF 9F D4 00           call far word [es:bx+0xd4]
0088 59                       pop cx
0089 59                       pop cx
008A B8 23 00                 mov ax, 0x23
008D 50                       push ax
008E B8 03 00                 mov ax, 0x3
0091 50                       push ax
0092 C4 5E 06                 les bx, [bp+0x6]
0095 26 FF 9F D4 00           call far word [es:bx+0xd4]
009A 59                       pop cx
009B 59                       pop cx
009C B8 23 00                 mov ax, 0x23
009F 50                       push ax
00A0 B8 04 00                 mov ax, 0x4
00A3 50                       push ax
00A4 C4 5E 06                 les bx, [bp+0x6]
00A7 26 FF 9F D4 00           call far word [es:bx+0xd4]
00AC 59                       pop cx
00AD 59                       pop cx
00AE EB 5A                    jmp 0x10a
00B0 B8 24 00                 mov ax, 0x24
00B3 50                       push ax
00B4 B8 01 00                 mov ax, 0x1
00B7 50                       push ax
00B8 C4 5E 06                 les bx, [bp+0x6]
00BB 26 FF 9F D4 00           call far word [es:bx+0xd4]
00C0 59                       pop cx
00C1 59                       pop cx
00C2 B8 24 00                 mov ax, 0x24
00C5 50                       push ax
00C6 B8 02 00                 mov ax, 0x2
00C9 50                       push ax
00CA C4 5E 06                 les bx, [bp+0x6]
00CD 26 FF 9F D4 00           call far word [es:bx+0xd4]
00D2 59                       pop cx
00D3 59                       pop cx
00D4 B8 23 00                 mov ax, 0x23
00D7 50                       push ax
00D8 B8 03 00                 mov ax, 0x3
00DB 50                       push ax
00DC C4 5E 06                 les bx, [bp+0x6]
00DF 26 FF 9F D4 00           call far word [es:bx+0xd4]
00E4 59                       pop cx
00E5 59                       pop cx
00E6 B8 23 00                 mov ax, 0x23
00E9 50                       push ax
00EA B8 04 00                 mov ax, 0x4
00ED 50                       push ax
00EE C4 5E 06                 les bx, [bp+0x6]
00F1 26 FF 9F D4 00           call far word [es:bx+0xd4]
00F6 59                       pop cx
00F7 59                       pop cx
00F8 B8 22 00                 mov ax, 0x22
00FB 50                       push ax
00FC B8 05 00                 mov ax, 0x5
00FF 50                       push ax
0100 C4 5E 06                 les bx, [bp+0x6]
0103 26 FF 9F D4 00           call far word [es:bx+0xd4]
0108 59                       pop cx
0109 59                       pop cx
010A                          RETURN

Functn10: "BADMNSTR"
0000                          BEGIN
0003 C4 5E 06                 les bx, [bp+0x6]
0006 26 FF 9F F0 00           call far word [es:bx+0xf0]
000B 3D 01 00                 cmp ax, 0x1
000E 75 27                    jnz 0x37
0010 B8 26 00                 mov ax, 0x26
0013 50                       push ax
0014 B8 01 00                 mov ax, 0x1
0017 50                       push ax
0018 C4 5E 06                 les bx, [bp+0x6]
001B 26 FF 9F D4 00           call far word [es:bx+0xd4]
0020 59                       pop cx
0021 59                       pop cx
0022 B8 26 00                 mov ax, 0x26
0025 50                       push ax
0026 B8 02 00                 mov ax, 0x2
0029 50                       push ax
002A C4 5E 06                 les bx, [bp+0x6]
002D 26 FF 9F D4 00           call far word [es:bx+0xd4]
0032 59                       pop cx
0033 59                       pop cx
0034 E9 2D 01                 jmp 0x164
0037 C4 5E 06                 les bx, [bp+0x6]
003A 26 FF 9F F0 00           call far word [es:bx+0xf0]
003F 3D 02 00                 cmp ax, 0x2
0042 75 4B                    jnz 0x8f
0044 B8 25 00                 mov ax, 0x25
0047 50                       push ax
0048 B8 01 00                 mov ax, 0x1
004B 50                       push ax
004C C4 5E 06                 les bx, [bp+0x6]
004F 26 FF 9F D4 00           call far word [es:bx+0xd4]
0054 59                       pop cx
0055 59                       pop cx
0056 B8 25 00                 mov ax, 0x25
0059 50                       push ax
005A B8 02 00                 mov ax, 0x2
005D 50                       push ax
005E C4 5E 06                 les bx, [bp+0x6]
0061 26 FF 9F D4 00           call far word [es:bx+0xd4]
0066 59                       pop cx
0067 59                       pop cx
0068 B8 27 00                 mov ax, 0x27
006B 50                       push ax
006C B8 03 00                 mov ax, 0x3
006F 50                       push ax
0070 C4 5E 06                 les bx, [bp+0x6]
0073 26 FF 9F D4 00           call far word [es:bx+0xd4]
0078 59                       pop cx
0079 59                       pop cx
007A B8 27 00                 mov ax, 0x27
007D 50                       push ax
007E B8 04 00                 mov ax, 0x4
0081 50                       push ax
0082 C4 5E 06                 les bx, [bp+0x6]
0085 26 FF 9F D4 00           call far word [es:bx+0xd4]
008A 59                       pop cx
008B 59                       pop cx
008C E9 D5 00                 jmp 0x164
008F C4 5E 06                 les bx, [bp+0x6]
0092 26 FF 9F F0 00           call far word [es:bx+0xf0]
0097 3D 03 00                 cmp ax, 0x3
009A 75 5C                    jnz 0xf8
009C B8 26 00                 mov ax, 0x26
009F 50                       push ax
00A0 B8 01 00                 mov ax, 0x1
00A3 50                       push ax
00A4 C4 5E 06                 les bx, [bp+0x6]
00A7 26 FF 9F D4 00           call far word [es:bx+0xd4]
00AC 59                       pop cx
00AD 59                       pop cx
00AE B8 26 00                 mov ax, 0x26
00B1 50                       push ax
00B2 B8 02 00                 mov ax, 0x2
00B5 50                       push ax
00B6 C4 5E 06                 les bx, [bp+0x6]
00B9 26 FF 9F D4 00           call far word [es:bx+0xd4]
00BE 59                       pop cx
00BF 59                       pop cx
00C0 B8 27 00                 mov ax, 0x27
00C3 50                       push ax
00C4 B8 03 00                 mov ax, 0x3
00C7 50                       push ax
00C8 C4 5E 06                 les bx, [bp+0x6]
00CB 26 FF 9F D4 00           call far word [es:bx+0xd4]
00D0 59                       pop cx
00D1 59                       pop cx
00D2 B8 27 00                 mov ax, 0x27
00D5 50                       push ax
00D6 B8 04 00                 mov ax, 0x4
00D9 50                       push ax
00DA C4 5E 06                 les bx, [bp+0x6]
00DD 26 FF 9F D4 00           call far word [es:bx+0xd4]
00E2 59                       pop cx
00E3 59                       pop cx
00E4 B8 28 00                 mov ax, 0x28
00E7 50                       push ax
00E8 B8 05 00                 mov ax, 0x5
00EB 50                       push ax
00EC C4 5E 06                 les bx, [bp+0x6]
00EF 26 FF 9F D4 00           call far word [es:bx+0xd4]
00F4 59                       pop cx
00F5 59                       pop cx
00F6 EB 6C                    jmp 0x164
00F8 B8 28 00                 mov ax, 0x28
00FB 50                       push ax
00FC B8 01 00                 mov ax, 0x1
00FF 50                       push ax
0100 C4 5E 06                 les bx, [bp+0x6]
0103 26 FF 9F D4 00           call far word [es:bx+0xd4]
0108 59                       pop cx
0109 59                       pop cx
010A B8 28 00                 mov ax, 0x28
010D 50                       push ax
010E B8 02 00                 mov ax, 0x2
0111 50                       push ax
0112 C4 5E 06                 les bx, [bp+0x6]
0115 26 FF 9F D4 00           call far word [es:bx+0xd4]
011A 59                       pop cx
011B 59                       pop cx
011C B8 27 00                 mov ax, 0x27
011F 50                       push ax
0120 B8 03 00                 mov ax, 0x3
0123 50                       push ax
0124 C4 5E 06                 les bx, [bp+0x6]
0127 26 FF 9F D4 00           call far word [es:bx+0xd4]
012C 59                       pop cx
012D 59                       pop cx
012E B8 27 00                 mov ax, 0x27
0131 50                       push ax
0132 B8 04 00                 mov ax, 0x4
0135 50                       push ax
0136 C4 5E 06                 les bx, [bp+0x6]
0139 26 FF 9F D4 00           call far word [es:bx+0xd4]
013E 59                       pop cx
013F 59                       pop cx
0140 B8 26 00                 mov ax, 0x26
0143 50                       push ax
0144 B8 05 00                 mov ax, 0x5
0147 50                       push ax
0148 C4 5E 06                 les bx, [bp+0x6]
014B 26 FF 9F D4 00           call far word [es:bx+0xd4]
0150 59                       pop cx
0151 59                       pop cx
0152 B8 25 00                 mov ax, 0x25
0155 50                       push ax
0156 B8 06 00                 mov ax, 0x6
0159 50                       push ax
015A C4 5E 06                 les bx, [bp+0x6]
015D 26 FF 9F D4 00           call far word [es:bx+0xd4]
0162 59                       pop cx
0163 59                       pop cx
0164                          RETURN

Functn11: "MESSAGEA"
0000                          BEGIN
0003 33 C0                    xor ax, ax
0005 50                       push ax
0006 33 C0                    xor ax, ax
0008 50                       push ax
0009 B8 02 00                 mov ax, 0x2
000C 50                       push ax
000D C4 5E 06                 les bx, [bp+0x6]
0010 26 FF 1F                 call far word [es:bx]
0013 83 C4 06                 add sp, 0x6
0016                          ShowMessage(074E) = This gateway leads to THE MINES.
0023                          RETURN

Functn12: "MESSAGEB"
0000                          BEGIN
0003 33 C0                    xor ax, ax
0005 50                       push ax
0006 33 C0                    xor ax, ax
0008 50                       push ax
0009 B8 02 00                 mov ax, 0x2
000C 50                       push ax
000D C4 5E 06                 les bx, [bp+0x6]
0010 26 FF 1F                 call far word [es:bx]
0013 83 C4 06                 add sp, 0x6
0016                          ShowMessage(076F) = This gateway leads to THE HALL OF DOORS.
0023                          RETURN

Functn13: "TELEMESS"
0000                          BEGIN
0003 B8 03 00                 mov ax, 0x3
0006 50                       push ax
0007 33 C0                    xor ax, ax
0009 50                       push ax
000A B8 02 00                 mov ax, 0x2
000D 50                       push ax
000E C4 5E 06                 les bx, [bp+0x6]
0011 26 FF 1F                 call far word [es:bx]
0014 83 C4 06                 add sp, 0x6
0017                          ShowMessage(0798) = There is a teleport to the north.
0024                          RETURN

Functn14: "STRSMESS"
0000                          BEGIN
0003 B8 01 00                 mov ax, 0x1
0006 50                       push ax
0007 33 C0                    xor ax, ax
0009 50                       push ax
000A B8 02 00                 mov ax, 0x2
000D 50                       push ax
000E C4 5E 06                 les bx, [bp+0x6]
0011 26 FF 1F                 call far word [es:bx]
0014 83 C4 06                 add sp, 0x6
0017                          ShowMessage(07BA) = There are stairs to the west through the gateway.
0024                          RETURN

Functn15: "STRSTLPT"
0000                          BEGIN
0003                          GoMap(02, 01, 02, 02)
001E                          RETURN

Functn16: "REGDOOR"
0000                          BEGIN
0003 33 C0                    xor ax, ax
0005 50                       push ax
0006 B8 02 00                 mov ax, 0x2
0009 50                       push ax
000A C4 5E 06                 les bx, [bp+0x6]
000D 26 FF 5F 04              call far word [es:bx+0x4]
0011 59                       pop cx
0012 59                       pop cx
0013 3D 04 00                 cmp ax, 0x4
0016 75 4B                    jnz 0x63
0018                          ShowMessage(07EC) = As you open the door, you hear locks click throughout the dungeon.
0025 C4 5E 06                 les bx, [bp+0x6]
0028 26 FF 5F 24              call far word [es:bx+0x24]
002C 50                       push ax
002D C4 5E 06                 les bx, [bp+0x6]
0030 26 FF 5F 20              call far word [es:bx+0x20]
0034 50                       push ax
0035 B8 01 00                 mov ax, 0x1
0038 50                       push ax
0039 C4 5E 06                 les bx, [bp+0x6]
003C 26 FF 5F 30              call far word [es:bx+0x30]
0040 83 C4 06                 add sp, 0x6
0043 B8 01 00                 mov ax, 0x1
0046 50                       push ax
0047 C4 5E 06                 les bx, [bp+0x6]
004A 26 FF 5F 24              call far word [es:bx+0x24]
004E 50                       push ax
004F C4 5E 06                 les bx, [bp+0x6]
0052 26 FF 5F 20              call far word [es:bx+0x20]
0056 50                       push ax
0057 C4 5E 06                 les bx, [bp+0x6]
005A 26 FF 5F 2C              call far word [es:bx+0x2c]
005E 83 C4 06                 add sp, 0x6
0061 EB 2A                    jmp 0x8d
0063                          ShowMessage(082F) = The door is currently impassable.
0070 33 C0                    xor ax, ax
0072 50                       push ax
0073 C4 5E 06                 les bx, [bp+0x6]
0076 26 FF 5F 24              call far word [es:bx+0x24]
007A 50                       push ax
007B C4 5E 06                 les bx, [bp+0x6]
007E 26 FF 5F 20              call far word [es:bx+0x20]
0082 50                       push ax
0083 C4 5E 06                 les bx, [bp+0x6]
0086 26 FF 5F 2C              call far word [es:bx+0x2c]
008A 83 C4 06                 add sp, 0x6
008D                          RETURN

Functn17: "NPCCHATA"
0000                          BEGIN
0003                          ShowMessage(0851) = You encounter an Elf Ranger.
0010                          ShowPortrait(001F)
001D                          UnknownFunction(000F) [es:bx+0xec]
002A 3D 0B 00                 cmp ax, 0xb
002D 77 0F                    ja 0x3e
002F                          ShowMessage(086E) = You must solve the mystery of the linked Vestibule doors to continue farther down into the dungeon.
003C EB 0D                    jmp 0x4b
003E                          ShowMessage(08D2) = The Elf Ranger decides you are not worthy of his time and leaves.
004B                          RETURN

Functn18: "NPCCHATB"
0000                          BEGIN
0003                          ShowMessage(0914) = You encounter a Human Wizard.
0010                          ShowPortrait(002B)
001D                          UnknownFunction(000F) [es:bx+0xec]
002A 3D 09 00                 cmp ax, 0x9
002D 77 0F                    ja 0x3e
002F                          ShowMessage(0932) = Centuries ago, Twinion was a thriving port town, ruled by the Galabryan dynasty. The kings welcomed all races and Guilds to the island. When the volcano Yserbius erupted, it almost buried Twinion under lava. If only we could find some way off this island!
003C EB 0D                    jmp 0x4b
003E                          ShowMessage(0A32) = The Human Wizard falls into a deep trance and refuses to talk.
004B                          RETURN

Functn19: "NPCCHATC"
0000                          BEGIN
0003                          ShowMessage(0A71) = You encounter a Gremlin Thief.
0010                          ShowPortrait(0026)
001D                          UnknownFunction(000F) [es:bx+0xec]
002A 3D 0A 00                 cmp ax, 0xa
002D 77 0F                    ja 0x3e
002F                          ShowMessage(0A90) = King Cleowyn created a clever maze of squares to discourage thieves and invaders. Mind you, no invaders ever thought Twinion rich enough to be worth their effort.
003C EB 0D                    jmp 0x4b
003E                          ShowMessage(0B33) = The Gremlin Thief slips into a shadow and disappears.
004B                          RETURN

Functn1A: "NPCCHATD"
0000                          BEGIN
0003                          ShowMessage(0B69) = You encounter an Orc Knight.
0010                          ShowPortrait(001A)
001D                          UnknownFunction(000F) [es:bx+0xec]
002A 3D 08 00                 cmp ax, 0x8
002D 77 0F                    ja 0x3e
002F                          ShowMessage(0B86) = The richness of fine armor and weapons in this dungeon baffles me. I've heard rumors that skilled dwarfs once crafted such armory, but the rogue dwarfs you encounter nowadays have no talent for such expert metallurgy.
003C EB 0D                    jmp 0x4b
003E                          ShowMessage(0C60) = The Orc Knight smiles politely and shoos you away.
004B                          RETURN

Functn1B: "NPCCHATE"
0000                          BEGIN
0003                          ShowMessage(0C93) = You encounter an Elf Cleric.
0010                          ShowPortrait(0027)
001D                          UnknownFunction(000F) [es:bx+0xec]
002A 3D 08 00                 cmp ax, 0x8
002D 77 0F                    ja 0x3e
002F                          ShowMessage(0CB0) = I have visited King Cleowyn's throne room, and what a disappointment it was. Not much treasure there and too many dead things. Perhaps I missed something.
003C EB 0D                    jmp 0x4b
003E                          ShowMessage(0D4B) = The Elf Cleric is too engrossed in his prayers to talk with you.
004B                          RETURN

Functn1C: "KEYDRA"
0000                          BEGIN
0003                          ax = HasItem(D3) ? 1 : 0 [es:bx+0x50]
0011 74 5F                    jz 0x72
0013 B8 01 00                 mov ax, 0x1
0016 50                       push ax
0017 33 C0                    xor ax, ax
0019 50                       push ax
001A B8 02 00                 mov ax, 0x2
001D 50                       push ax
001E C4 5E 06                 les bx, [bp+0x6]
0021 26 FF 1F                 call far word [es:bx]
0024 83 C4 06                 add sp, 0x6
0027                          ShowMessage(0D8C) = Cleowyn's Key unlocks the door.
0034 C4 5E 06                 les bx, [bp+0x6]
0037 26 FF 5F 24              call far word [es:bx+0x24]
003B 50                       push ax
003C C4 5E 06                 les bx, [bp+0x6]
003F 26 FF 5F 20              call far word [es:bx+0x20]
0043 50                       push ax
0044 B8 01 00                 mov ax, 0x1
0047 50                       push ax
0048 C4 5E 06                 les bx, [bp+0x6]
004B 26 FF 5F 30              call far word [es:bx+0x30]
004F 83 C4 06                 add sp, 0x6
0052 B8 01 00                 mov ax, 0x1
0055 50                       push ax
0056 C4 5E 06                 les bx, [bp+0x6]
0059 26 FF 5F 24              call far word [es:bx+0x24]
005D 50                       push ax
005E C4 5E 06                 les bx, [bp+0x6]
0061 26 FF 5F 20              call far word [es:bx+0x20]
0065 50                       push ax
0066 C4 5E 06                 les bx, [bp+0x6]
0069 26 FF 5F 2C              call far word [es:bx+0x2c]
006D 83 C4 06                 add sp, 0x6
0070 EB 2A                    jmp 0x9c
0072                          ShowMessage(0DAC) = The door is locked.
007F 33 C0                    xor ax, ax
0081 50                       push ax
0082 C4 5E 06                 les bx, [bp+0x6]
0085 26 FF 5F 24              call far word [es:bx+0x24]
0089 50                       push ax
008A C4 5E 06                 les bx, [bp+0x6]
008D 26 FF 5F 20              call far word [es:bx+0x20]
0091 50                       push ax
0092 C4 5E 06                 les bx, [bp+0x6]
0095 26 FF 5F 2C              call far word [es:bx+0x2c]
0099 83 C4 06                 add sp, 0x6
009C                          RETURN

Functn1D: "LKPKDRA"
0000                          BEGIN
0003                          ax = HasItem(D2) ? 1 : 0 [es:bx+0x50]
0011 74 5F                    jz 0x72
0013 B8 02 00                 mov ax, 0x2
0016 50                       push ax
0017 33 C0                    xor ax, ax
0019 50                       push ax
001A B8 02 00                 mov ax, 0x2
001D 50                       push ax
001E C4 5E 06                 les bx, [bp+0x6]
0021 26 FF 1F                 call far word [es:bx]
0024 83 C4 06                 add sp, 0x6
0027                          ShowMessage(0DC0) = Cleowyn's Lockpick has unlocked the door.
0034 C4 5E 06                 les bx, [bp+0x6]
0037 26 FF 5F 24              call far word [es:bx+0x24]
003B 50                       push ax
003C C4 5E 06                 les bx, [bp+0x6]
003F 26 FF 5F 20              call far word [es:bx+0x20]
0043 50                       push ax
0044 B8 01 00                 mov ax, 0x1
0047 50                       push ax
0048 C4 5E 06                 les bx, [bp+0x6]
004B 26 FF 5F 30              call far word [es:bx+0x30]
004F 83 C4 06                 add sp, 0x6
0052 B8 01 00                 mov ax, 0x1
0055 50                       push ax
0056 C4 5E 06                 les bx, [bp+0x6]
0059 26 FF 5F 24              call far word [es:bx+0x24]
005D 50                       push ax
005E C4 5E 06                 les bx, [bp+0x6]
0061 26 FF 5F 20              call far word [es:bx+0x20]
0065 50                       push ax
0066 C4 5E 06                 les bx, [bp+0x6]
0069 26 FF 5F 2C              call far word [es:bx+0x2c]
006D 83 C4 06                 add sp, 0x6
0070 EB 2A                    jmp 0x9c
0072                          ShowMessage(0DEA) = The door is locked.  It looks like something special is needed to open this door.
007F 33 C0                    xor ax, ax
0081 50                       push ax
0082 C4 5E 06                 les bx, [bp+0x6]
0085 26 FF 5F 24              call far word [es:bx+0x24]
0089 50                       push ax
008A C4 5E 06                 les bx, [bp+0x6]
008D 26 FF 5F 20              call far word [es:bx+0x20]
0091 50                       push ax
0092 C4 5E 06                 les bx, [bp+0x6]
0095 26 FF 5F 2C              call far word [es:bx+0x2c]
0099 83 C4 06                 add sp, 0x6
009C                          RETURN

Functn1E: "STRNGDRA"
0000                          BEGIN
0003 33 C0                    xor ax, ax
0005 50                       push ax
0006 C4 5E 06                 les bx, [bp+0x6]
0009 26 FF 9F A4 00           call far word [es:bx+0xa4]
000E 59                       pop cx
000F 3D 12 00                 cmp ax, 0x12
0012 72 5F                    jb 0x73
0014 B8 03 00                 mov ax, 0x3
0017 50                       push ax
0018 33 C0                    xor ax, ax
001A 50                       push ax
001B B8 02 00                 mov ax, 0x2
001E 50                       push ax
001F C4 5E 06                 les bx, [bp+0x6]
0022 26 FF 1F                 call far word [es:bx]
0025 83 C4 06                 add sp, 0x6
0028                          ShowMessage(0E3C) = You manage to force open the door.
0035 C4 5E 06                 les bx, [bp+0x6]
0038 26 FF 5F 24              call far word [es:bx+0x24]
003C 50                       push ax
003D C4 5E 06                 les bx, [bp+0x6]
0040 26 FF 5F 20              call far word [es:bx+0x20]
0044 50                       push ax
0045 B8 01 00                 mov ax, 0x1
0048 50                       push ax
0049 C4 5E 06                 les bx, [bp+0x6]
004C 26 FF 5F 30              call far word [es:bx+0x30]
0050 83 C4 06                 add sp, 0x6
0053 B8 01 00                 mov ax, 0x1
0056 50                       push ax
0057 C4 5E 06                 les bx, [bp+0x6]
005A 26 FF 5F 24              call far word [es:bx+0x24]
005E 50                       push ax
005F C4 5E 06                 les bx, [bp+0x6]
0062 26 FF 5F 20              call far word [es:bx+0x20]
0066 50                       push ax
0067 C4 5E 06                 les bx, [bp+0x6]
006A 26 FF 5F 2C              call far word [es:bx+0x2c]
006E 83 C4 06                 add sp, 0x6
0071 EB 2A                    jmp 0x9d
0073                          ShowMessage(0E5F) = The door is currently impassable.
0080 33 C0                    xor ax, ax
0082 50                       push ax
0083 C4 5E 06                 les bx, [bp+0x6]
0086 26 FF 5F 24              call far word [es:bx+0x24]
008A 50                       push ax
008B C4 5E 06                 les bx, [bp+0x6]
008E 26 FF 5F 20              call far word [es:bx+0x20]
0092 50                       push ax
0093 C4 5E 06                 les bx, [bp+0x6]
0096 26 FF 5F 2C              call far word [es:bx+0x2c]
009A 83 C4 06                 add sp, 0x6
009D                          RETURN

Functn1F: "REGDORA"
0000                          BEGIN
0003 33 C0                    xor ax, ax
0005 50                       push ax
0006 B8 02 00                 mov ax, 0x2
0009 50                       push ax
000A C4 5E 06                 les bx, [bp+0x6]
000D 26 FF 5F 04              call far word [es:bx+0x4]
0011 59                       pop cx
0012 59                       pop cx
0013 0B C0                    or ax, ax
0015 74 15                    jz 0x2c
0017 33 C0                    xor ax, ax
0019 50                       push ax
001A B8 02 00                 mov ax, 0x2
001D 50                       push ax
001E C4 5E 06                 les bx, [bp+0x6]
0021 26 FF 5F 04              call far word [es:bx+0x4]
0025 59                       pop cx
0026 59                       pop cx
0027 3D 04 00                 cmp ax, 0x4
002A 75 5F                    jnz 0x8b
002C B8 04 00                 mov ax, 0x4
002F 50                       push ax
0030 33 C0                    xor ax, ax
0032 50                       push ax
0033 B8 02 00                 mov ax, 0x2
0036 50                       push ax
0037 C4 5E 06                 les bx, [bp+0x6]
003A 26 FF 1F                 call far word [es:bx]
003D 83 C4 06                 add sp, 0x6
0040                          ShowMessage(0E81) = As you open the door, you hear locks click throughout the dungeon.
004D C4 5E 06                 les bx, [bp+0x6]
0050 26 FF 5F 24              call far word [es:bx+0x24]
0054 50                       push ax
0055 C4 5E 06                 les bx, [bp+0x6]
0058 26 FF 5F 20              call far word [es:bx+0x20]
005C 50                       push ax
005D B8 01 00                 mov ax, 0x1
0060 50                       push ax
0061 C4 5E 06                 les bx, [bp+0x6]
0064 26 FF 5F 30              call far word [es:bx+0x30]
0068 83 C4 06                 add sp, 0x6
006B B8 01 00                 mov ax, 0x1
006E 50                       push ax
006F C4 5E 06                 les bx, [bp+0x6]
0072 26 FF 5F 24              call far word [es:bx+0x24]
0076 50                       push ax
0077 C4 5E 06                 les bx, [bp+0x6]
007A 26 FF 5F 20              call far word [es:bx+0x20]
007E 50                       push ax
007F C4 5E 06                 les bx, [bp+0x6]
0082 26 FF 5F 2C              call far word [es:bx+0x2c]
0086 83 C4 06                 add sp, 0x6
0089 EB 2A                    jmp 0xb5
008B                          ShowMessage(0EC4) = The door is currently impassable.
0098 33 C0                    xor ax, ax
009A 50                       push ax
009B C4 5E 06                 les bx, [bp+0x6]
009E 26 FF 5F 24              call far word [es:bx+0x24]
00A2 50                       push ax
00A3 C4 5E 06                 les bx, [bp+0x6]
00A6 26 FF 5F 20              call far word [es:bx+0x20]
00AA 50                       push ax
00AB C4 5E 06                 les bx, [bp+0x6]
00AE 26 FF 5F 2C              call far word [es:bx+0x2c]
00B2 83 C4 06                 add sp, 0x6
00B5                          RETURN

