Functn01: "STRSTELE"
0000                          BEGIN
0003                          GoMap(03, C2, 01, 03) [es:bx+0xbc]
001E                          RETURN

Functn02: "KEYDOOR"
0000                          BEGIN
0003 B8 DA 00                 mov ax, 0xda
0006 50                       push ax
0007 B8 DA 00                 mov ax, 0xda
000A 50                       push ax
000B C4 5E 06                 les bx, [bp+0x6]
000E 26 FF 5F 54              call far word [es:bx+0x54]
0012 59                       pop cx
0013 59                       pop cx
0014 0B C0                    or ax, ax
0016 74 4B                    jz 0x63
0018 B8 01 00                 mov ax, 0x1
001B 50                       push ax
001C C4 5E 06                 les bx, [bp+0x6]
001F 26 FF 5F 24              call far word [es:bx+0x24]
0023 50                       push ax
0024 C4 5E 06                 les bx, [bp+0x6]
0027 26 FF 5F 20              call far word [es:bx+0x20]
002B 50                       push ax
002C C4 5E 06                 les bx, [bp+0x6]
002F 26 FF 5F 2C              call far word [es:bx+0x2c]
0033 83 C4 06                 add sp, 0x6
0036 C4 5E 06                 les bx, [bp+0x6]
0039 26 FF 5F 24              call far word [es:bx+0x24]
003D 50                       push ax
003E C4 5E 06                 les bx, [bp+0x6]
0041 26 FF 5F 20              call far word [es:bx+0x20]
0045 50                       push ax
0046 B8 01 00                 mov ax, 0x1
0049 50                       push ax
004A C4 5E 06                 les bx, [bp+0x6]
004D 26 FF 5F 30              call far word [es:bx+0x30]
0051 83 C4 06                 add sp, 0x6
0054                          ShowMessage(03FC) [es:bx+0xf8] = The O Rune Key unlocked the door.
0061 EB 2A                    jmp 0x8d
0063 33 C0                    xor ax, ax
0065 50                       push ax
0066 C4 5E 06                 les bx, [bp+0x6]
0069 26 FF 5F 24              call far word [es:bx+0x24]
006D 50                       push ax
006E C4 5E 06                 les bx, [bp+0x6]
0071 26 FF 5F 20              call far word [es:bx+0x20]
0075 50                       push ax
0076 C4 5E 06                 les bx, [bp+0x6]
0079 26 FF 5F 2C              call far word [es:bx+0x2c]
007D 83 C4 06                 add sp, 0x6
0080                          ShowMessage(041E) [es:bx+0xf8] = The door is locked. It requires a special key.
008D                          RETURN

Functn03: "GOLDAENC"
0000                          BEGIN
0003                          ax = CheckState(02, 18) [es:bx+0x4]
0014 3D 01 00                 cmp ax, 0x1
0017 75 2E                    jnz 0x47
0019                          ShowMessage(044D) [es:bx+0xf8] = Skeletons on the floor stir to life.
0026 B8 E8 03                 mov ax, 0x3e8
0029 50                       push ax
002A 33 C0                    xor ax, ax
002C 50                       push ax
002D 33 C0                    xor ax, ax
002F 50                       push ax
0030 33 C0                    xor ax, ax
0032 50                       push ax
0033 33 C0                    xor ax, ax
0035 50                       push ax
0036 B8 B6 00                 mov ax, 0xb6
0039 50                       push ax
003A C4 5E 06                 les bx, [bp+0x6]
003D 26 FF 9F D8 00           call far word [es:bx+0xd8]
0042 83 C4 0C                 add sp, 0xc
0045 EB 41                    jmp 0x88
0047 B8 88 13                 mov ax, 0x1388
004A 50                       push ax
004B 33 C0                    xor ax, ax
004D 50                       push ax
004E 33 C0                    xor ax, ax
0050 50                       push ax
0051 33 C0                    xor ax, ax
0053 50                       push ax
0054 33 C0                    xor ax, ax
0056 50                       push ax
0057 B8 CF 00                 mov ax, 0xcf
005A 50                       push ax
005B C4 5E 06                 les bx, [bp+0x6]
005E 26 FF 9F D8 00           call far word [es:bx+0xd8]
0063 83 C4 0C                 add sp, 0xc
0066 B8 01 00                 mov ax, 0x1
0069 50                       push ax
006A B8 18 00                 mov ax, 0x18
006D 50                       push ax
006E B8 02 00                 mov ax, 0x2
0071 50                       push ax
0072 C4 5E 06                 les bx, [bp+0x6]
0075 26 FF 1F                 call far word [es:bx]
0078 83 C4 06                 add sp, 0x6
007B                          ShowMessage(0472) [es:bx+0xf8] = Among the bones on the floor are pieces of gold. The bones begin to move.
0088 C4 5E 06                 les bx, [bp+0x6]
008B 26 FF 9F F0 00           call far word [es:bx+0xf0]
0090 3D 01 00                 cmp ax, 0x1
0093 75 15                    jnz 0xaa
0095                          SetEncData(01, 01) [es:bx+0xd4]
00A7 E9 9A 00                 jmp 0x144
00AA C4 5E 06                 les bx, [bp+0x6]
00AD 26 FF 9F F0 00           call far word [es:bx+0xf0]
00B2 3D 02 00                 cmp ax, 0x2
00B5 74 0D                    jz 0xc4
00B7 C4 5E 06                 les bx, [bp+0x6]
00BA 26 FF 9F F0 00           call far word [es:bx+0xf0]
00BF 3D 03 00                 cmp ax, 0x3
00C2 75 38                    jnz 0xfc
00C4                          SetEncData(02, 01) [es:bx+0xd4]
00D6                          SetEncData(04, 02) [es:bx+0xd4]
00E8                          SetEncData(06, 03) [es:bx+0xd4]
00FA EB 48                    jmp 0x144
00FC                          SetEncData(01, 01) [es:bx+0xd4]
010E                          SetEncData(02, 02) [es:bx+0xd4]
0120                          SetEncData(03, 03) [es:bx+0xd4]
0132                          SetEncData(04, 04) [es:bx+0xd4]
0144                          RETURN

Functn04: "GOLDBENC"
0000                          BEGIN
0003                          ax = HasItem(C6) ? 1 : 0 [es:bx+0x50]
0011 74 2E                    jz 0x41
0013                          ShowMessage(04BC) [es:bx+0xf8] = A clutch of Large-Uns growl at you.
0020 B8 D0 07                 mov ax, 0x7d0
0023 50                       push ax
0024 33 C0                    xor ax, ax
0026 50                       push ax
0027 33 C0                    xor ax, ax
0029 50                       push ax
002A 33 C0                    xor ax, ax
002C 50                       push ax
002D 33 C0                    xor ax, ax
002F 50                       push ax
0030 B8 D1 00                 mov ax, 0xd1
0033 50                       push ax
0034 C4 5E 06                 les bx, [bp+0x6]
0037 26 FF 9F D8 00           call far word [es:bx+0xd8]
003C 83 C4 0C                 add sp, 0xc
003F EB 2C                    jmp 0x6d
0041 B8 70 17                 mov ax, 0x1770
0044 50                       push ax
0045 33 C0                    xor ax, ax
0047 50                       push ax
0048 33 C0                    xor ax, ax
004A 50                       push ax
004B 33 C0                    xor ax, ax
004D 50                       push ax
004E 33 C0                    xor ax, ax
0050 50                       push ax
0051 B8 C6 00                 mov ax, 0xc6
0054 50                       push ax
0055 C4 5E 06                 les bx, [bp+0x6]
0058 26 FF 9F D8 00           call far word [es:bx+0xd8]
005D 83 C4 0C                 add sp, 0xc
0060                          ShowMessage(04E0) [es:bx+0xf8] = A Large-Un tosses a piece of wood aside as he and his friends attack.
006D C4 5E 06                 les bx, [bp+0x6]
0070 26 FF 9F F0 00           call far word [es:bx+0xf0]
0075 3D 01 00                 cmp ax, 0x1
0078 75 27                    jnz 0xa1
007A                          SetEncData(19, 01) [es:bx+0xd4]
008C                          SetEncData(1A, 02) [es:bx+0xd4]
009E E9 F7 00                 jmp 0x198
00A1 C4 5E 06                 les bx, [bp+0x6]
00A4 26 FF 9F F0 00           call far word [es:bx+0xf0]
00A9 3D 02 00                 cmp ax, 0x2
00AC 75 39                    jnz 0xe7
00AE                          SetEncData(19, 01) [es:bx+0xd4]
00C0                          SetEncData(1A, 02) [es:bx+0xd4]
00D2                          SetEncData(19, 03) [es:bx+0xd4]
00E4 E9 B1 00                 jmp 0x198
00E7 C4 5E 06                 les bx, [bp+0x6]
00EA 26 FF 9F F0 00           call far word [es:bx+0xf0]
00EF 3D 03 00                 cmp ax, 0x3
00F2 75 4A                    jnz 0x13e
00F4                          SetEncData(1A, 01) [es:bx+0xd4]
0106                          SetEncData(1A, 02) [es:bx+0xd4]
0118                          SetEncData(1B, 03) [es:bx+0xd4]
012A                          SetEncData(1B, 04) [es:bx+0xd4]
013C EB 5A                    jmp 0x198
013E                          SetEncData(1B, 01) [es:bx+0xd4]
0150                          SetEncData(1B, 02) [es:bx+0xd4]
0162                          SetEncData(1B, 03) [es:bx+0xd4]
0174                          SetEncData(1B, 04) [es:bx+0xd4]
0186                          SetEncData(1C, 05) [es:bx+0xd4]
0198                          RETURN

Functn05: "CROWN"
0000                          BEGIN
0003                          ax = HasItem(69) ? 1 : 0 [es:bx+0x50]
0011 74 2E                    jz 0x41
0013                          ShowMessage(0526) [es:bx+0xf8] = You have interrupted a Lizardite religious service.
0020 B8 F4 01                 mov ax, 0x1f4
0023 50                       push ax
0024 33 C0                    xor ax, ax
0026 50                       push ax
0027 33 C0                    xor ax, ax
0029 50                       push ax
002A 33 C0                    xor ax, ax
002C 50                       push ax
002D 33 C0                    xor ax, ax
002F 50                       push ax
0030 B8 D0 00                 mov ax, 0xd0
0033 50                       push ax
0034 C4 5E 06                 les bx, [bp+0x6]
0037 26 FF 9F D8 00           call far word [es:bx+0xd8]
003C 83 C4 0C                 add sp, 0xc
003F EB 46                    jmp 0x87
0041 B8 D0 07                 mov ax, 0x7d0
0044 50                       push ax
0045 33 C0                    xor ax, ax
0047 50                       push ax
0048 33 C0                    xor ax, ax
004A 50                       push ax
004B 33 C0                    xor ax, ax
004D 50                       push ax
004E B8 CF 00                 mov ax, 0xcf
0051 50                       push ax
0052 B8 69 00                 mov ax, 0x69
0055 50                       push ax
0056 C4 5E 06                 les bx, [bp+0x6]
0059 26 FF 9F D8 00           call far word [es:bx+0xd8]
005E 83 C4 0C                 add sp, 0xc
0061 B8 DA 00                 mov ax, 0xda
0064 50                       push ax
0065 C4 5E 06                 les bx, [bp+0x6]
0068 26 FF 5F 4C              call far word [es:bx+0x4c]
006C 59                       pop cx
006D                          ShowMessage(055A) [es:bx+0xf8] = As you enter the room, the O Rune Key vanishes.
007A                          ShowMessage(058A) [es:bx+0xf8] = You see a Lizardite proudly wearing the Crown of King Cleowyn.
0087 C4 5E 06                 les bx, [bp+0x6]
008A 26 FF 9F F0 00           call far word [es:bx+0xf0]
008F 3D 01 00                 cmp ax, 0x1
0092 75 27                    jnz 0xbb
0094                          SetEncData(21, 01) [es:bx+0xd4]
00A6                          SetEncData(21, 02) [es:bx+0xd4]
00B8 E9 D0 00                 jmp 0x18b
00BB C4 5E 06                 les bx, [bp+0x6]
00BE 26 FF 9F F0 00           call far word [es:bx+0xf0]
00C3 3D 02 00                 cmp ax, 0x2
00C6 74 0D                    jz 0xd5
00C8 C4 5E 06                 les bx, [bp+0x6]
00CB 26 FF 9F F0 00           call far word [es:bx+0xf0]
00D0 3D 03 00                 cmp ax, 0x3
00D3 75 4A                    jnz 0x11f
00D5                          SetEncData(21, 01) [es:bx+0xd4]
00E7                          SetEncData(21, 02) [es:bx+0xd4]
00F9                          SetEncData(21, 03) [es:bx+0xd4]
010B                          SetEncData(21, 05) [es:bx+0xd4]
011D EB 6C                    jmp 0x18b
011F                          SetEncData(21, 01) [es:bx+0xd4]
0131                          SetEncData(21, 02) [es:bx+0xd4]
0143                          SetEncData(21, 03) [es:bx+0xd4]
0155                          SetEncData(21, 04) [es:bx+0xd4]
0167                          SetEncData(21, 05) [es:bx+0xd4]
0179                          SetEncData(21, 06) [es:bx+0xd4]
018B                          RETURN

Functn06: "ITEMBENC"
0000                          BEGIN
0003                          ax = HasItem(BB) ? 1 : 0 [es:bx+0x50]
0011 74 2E                    jz 0x41
0013                          ShowMessage(05C9) [es:bx+0xf8] = You run into the living skeletons of King Cleowyn's guards.
0020 B8 20 03                 mov ax, 0x320
0023 50                       push ax
0024 33 C0                    xor ax, ax
0026 50                       push ax
0027 33 C0                    xor ax, ax
0029 50                       push ax
002A 33 C0                    xor ax, ax
002C 50                       push ax
002D 33 C0                    xor ax, ax
002F 50                       push ax
0030 B8 BC 00                 mov ax, 0xbc
0033 50                       push ax
0034 C4 5E 06                 les bx, [bp+0x6]
0037 26 FF 9F D8 00           call far word [es:bx+0xd8]
003C 83 C4 0C                 add sp, 0xc
003F EB 2C                    jmp 0x6d
0041 B8 58 1B                 mov ax, 0x1b58
0044 50                       push ax
0045 33 C0                    xor ax, ax
0047 50                       push ax
0048 33 C0                    xor ax, ax
004A 50                       push ax
004B 33 C0                    xor ax, ax
004D 50                       push ax
004E 33 C0                    xor ax, ax
0050 50                       push ax
0051 B8 BB 00                 mov ax, 0xbb
0054 50                       push ax
0055 C4 5E 06                 les bx, [bp+0x6]
0058 26 FF 9F D8 00           call far word [es:bx+0xd8]
005D 83 C4 0C                 add sp, 0xc
0060                          ShowMessage(0605) [es:bx+0xf8] = One of the skeletons approaching you holds a piece of paper in its bony hand.
006D C4 5E 06                 les bx, [bp+0x6]
0070 26 FF 9F F0 00           call far word [es:bx+0xf0]
0075 3D 01 00                 cmp ax, 0x1
0078 75 15                    jnz 0x8f
007A                          SetEncData(15, 01) [es:bx+0xd4]
008C E9 9A 00                 jmp 0x129
008F C4 5E 06                 les bx, [bp+0x6]
0092 26 FF 9F F0 00           call far word [es:bx+0xf0]
0097 3D 02 00                 cmp ax, 0x2
009A 74 0D                    jz 0xa9
009C C4 5E 06                 les bx, [bp+0x6]
009F 26 FF 9F F0 00           call far word [es:bx+0xf0]
00A4 3D 03 00                 cmp ax, 0x3
00A7 75 38                    jnz 0xe1
00A9                          SetEncData(15, 01) [es:bx+0xd4]
00BB                          SetEncData(16, 02) [es:bx+0xd4]
00CD                          SetEncData(17, 03) [es:bx+0xd4]
00DF EB 48                    jmp 0x129
00E1                          SetEncData(15, 01) [es:bx+0xd4]
00F3                          SetEncData(17, 02) [es:bx+0xd4]
0105                          SetEncData(16, 03) [es:bx+0xd4]
0117                          SetEncData(18, 04) [es:bx+0xd4]
0129                          RETURN

Functn07: "ITEMCENC"
0000                          BEGIN
0003                          ax = HasItem(64) ? 1 : 0 [es:bx+0x50]
0011 74 52                    jz 0x65
0013                          ax = HasItem(94) ? 1 : 0 [es:bx+0x50]
0021 74 21                    jz 0x44
0023 B8 F4 01                 mov ax, 0x1f4
0026 50                       push ax
0027 33 C0                    xor ax, ax
0029 50                       push ax
002A 33 C0                    xor ax, ax
002C 50                       push ax
002D 33 C0                    xor ax, ax
002F 50                       push ax
0030 33 C0                    xor ax, ax
0032 50                       push ax
0033 B8 BD 00                 mov ax, 0xbd
0036 50                       push ax
0037 C4 5E 06                 les bx, [bp+0x6]
003A 26 FF 9F D8 00           call far word [es:bx+0xd8]
003F 83 C4 0C                 add sp, 0xc
0042 EB 1F                    jmp 0x63
0044 B8 D0 07                 mov ax, 0x7d0
0047 50                       push ax
0048 33 C0                    xor ax, ax
004A 50                       push ax
004B 33 C0                    xor ax, ax
004D 50                       push ax
004E 33 C0                    xor ax, ax
0050 50                       push ax
0051 33 C0                    xor ax, ax
0053 50                       push ax
0054 B8 94 00                 mov ax, 0x94
0057 50                       push ax
0058 C4 5E 06                 les bx, [bp+0x6]
005B 26 FF 9F D8 00           call far word [es:bx+0xd8]
0060 83 C4 0C                 add sp, 0xc
0063 EB 51                    jmp 0xb6
0065                          ax = HasItem(94) ? 1 : 0 [es:bx+0x50]
0073 74 21                    jz 0x96
0075 B8 D0 07                 mov ax, 0x7d0
0078 50                       push ax
0079 33 C0                    xor ax, ax
007B 50                       push ax
007C 33 C0                    xor ax, ax
007E 50                       push ax
007F 33 C0                    xor ax, ax
0081 50                       push ax
0082 33 C0                    xor ax, ax
0084 50                       push ax
0085 B8 64 00                 mov ax, 0x64
0088 50                       push ax
0089 C4 5E 06                 les bx, [bp+0x6]
008C 26 FF 9F D8 00           call far word [es:bx+0xd8]
0091 83 C4 0C                 add sp, 0xc
0094 EB 20                    jmp 0xb6
0096 B8 D0 07                 mov ax, 0x7d0
0099 50                       push ax
009A 33 C0                    xor ax, ax
009C 50                       push ax
009D 33 C0                    xor ax, ax
009F 50                       push ax
00A0 33 C0                    xor ax, ax
00A2 50                       push ax
00A3 B8 64 00                 mov ax, 0x64
00A6 50                       push ax
00A7 B8 94 00                 mov ax, 0x94
00AA 50                       push ax
00AB C4 5E 06                 les bx, [bp+0x6]
00AE 26 FF 9F D8 00           call far word [es:bx+0xd8]
00B3 83 C4 0C                 add sp, 0xc
00B6                          ShowMessage(0653) [es:bx+0xf8] = Reptilian bodies stir as you draw near.
00C3 C4 5E 06                 les bx, [bp+0x6]
00C6 26 FF 9F F0 00           call far word [es:bx+0xf0]
00CB 3D 01 00                 cmp ax, 0x1
00CE 75 15                    jnz 0xe5
00D0                          SetEncData(23, 01) [es:bx+0xd4]
00E2 E9 9A 00                 jmp 0x17f
00E5 C4 5E 06                 les bx, [bp+0x6]
00E8 26 FF 9F F0 00           call far word [es:bx+0xf0]
00ED 3D 02 00                 cmp ax, 0x2
00F0 74 0D                    jz 0xff
00F2 C4 5E 06                 les bx, [bp+0x6]
00F5 26 FF 9F F0 00           call far word [es:bx+0xf0]
00FA 3D 03 00                 cmp ax, 0x3
00FD 75 38                    jnz 0x137
00FF                          SetEncData(23, 01) [es:bx+0xd4]
0111                          SetEncData(23, 02) [es:bx+0xd4]
0123                          SetEncData(23, 03) [es:bx+0xd4]
0135 EB 48                    jmp 0x17f
0137                          SetEncData(23, 01) [es:bx+0xd4]
0149                          SetEncData(23, 02) [es:bx+0xd4]
015B                          SetEncData(23, 03) [es:bx+0xd4]
016D                          SetEncData(23, 04) [es:bx+0xd4]
017F                          RETURN

Functn08: "STRMNSTR"
0000                          BEGIN
0003 C4 5E 06                 les bx, [bp+0x6]
0006 26 FF 9F F0 00           call far word [es:bx+0xf0]
000B 3D 01 00                 cmp ax, 0x1
000E 75 27                    jnz 0x37
0010                          SetEncData(19, 01) [es:bx+0xd4]
0022                          SetEncData(1A, 02) [es:bx+0xd4]
0034 E9 1B 01                 jmp 0x152
0037 C4 5E 06                 les bx, [bp+0x6]
003A 26 FF 9F F0 00           call far word [es:bx+0xf0]
003F 3D 02 00                 cmp ax, 0x2
0042 75 39                    jnz 0x7d
0044                          SetEncData(19, 01) [es:bx+0xd4]
0056                          SetEncData(1A, 02) [es:bx+0xd4]
0068                          SetEncData(19, 03) [es:bx+0xd4]
007A E9 D5 00                 jmp 0x152
007D C4 5E 06                 les bx, [bp+0x6]
0080 26 FF 9F F0 00           call far word [es:bx+0xf0]
0085 3D 03 00                 cmp ax, 0x3
0088 75 5C                    jnz 0xe6
008A                          SetEncData(1A, 01) [es:bx+0xd4]
009C                          SetEncData(1A, 02) [es:bx+0xd4]
00AE                          SetEncData(1B, 03) [es:bx+0xd4]
00C0                          SetEncData(1B, 04) [es:bx+0xd4]
00D2                          SetEncData(1C, 05) [es:bx+0xd4]
00E4 EB 6C                    jmp 0x152
00E6                          SetEncData(1B, 01) [es:bx+0xd4]
00F8                          SetEncData(1B, 02) [es:bx+0xd4]
010A                          SetEncData(1B, 03) [es:bx+0xd4]
011C                          SetEncData(1B, 04) [es:bx+0xd4]
012E                          SetEncData(1C, 05) [es:bx+0xd4]
0140                          SetEncData(1C, 06) [es:bx+0xd4]
0152                          RETURN

Functn09: "TUFMNSTR"
0000                          BEGIN
0003 C4 5E 06                 les bx, [bp+0x6]
0006 26 FF 9F F0 00           call far word [es:bx+0xf0]
000B 3D 01 00                 cmp ax, 0x1
000E 75 15                    jnz 0x25
0010                          SetEncData(21, 01) [es:bx+0xd4]
0022 E9 E5 00                 jmp 0x10a
0025 C4 5E 06                 les bx, [bp+0x6]
0028 26 FF 9F F0 00           call far word [es:bx+0xf0]
002D 3D 02 00                 cmp ax, 0x2
0030 75 27                    jnz 0x59
0032                          SetEncData(21, 01) [es:bx+0xd4]
0044                          SetEncData(21, 02) [es:bx+0xd4]
0056 E9 B1 00                 jmp 0x10a
0059 C4 5E 06                 les bx, [bp+0x6]
005C 26 FF 9F F0 00           call far word [es:bx+0xf0]
0061 3D 03 00                 cmp ax, 0x3
0064 75 4A                    jnz 0xb0
0066                          SetEncData(21, 01) [es:bx+0xd4]
0078                          SetEncData(21, 02) [es:bx+0xd4]
008A                          SetEncData(21, 03) [es:bx+0xd4]
009C                          SetEncData(21, 04) [es:bx+0xd4]
00AE EB 5A                    jmp 0x10a
00B0                          SetEncData(21, 01) [es:bx+0xd4]
00C2                          SetEncData(21, 02) [es:bx+0xd4]
00D4                          SetEncData(21, 03) [es:bx+0xd4]
00E6                          SetEncData(21, 04) [es:bx+0xd4]
00F8                          SetEncData(21, 05) [es:bx+0xd4]
010A                          RETURN

Functn0A: "STRSMESS"
0000                          BEGIN
0003                          ShowMessage(067B) [es:bx+0xf8] = The stairs through the west gateway lead down a level.
0010                          RETURN

Functn0B: "NPCCHATA"
0000                          BEGIN
0003                          ShowMessage(06B2) [es:bx+0xf8] = A Human Wizard teleports into the room you occupy.
0010                          ShowPortrait(002B) [es:bx+0xd4]
001D                          UnknownFunction(000F) [es:bx+0xec]
002A 3D 0B 00                 cmp ax, 0xb
002D 77 29                    ja 0x58
002F                          ShowMessage(06E5) [es:bx+0xf8] = Be careful when you find the way to open the door that leads to the nether depths of this dungeon.
003C                          ShowMessage(0748) [es:bx+0xf8] = All quest items from Cleowyn's Palace levels will be stripped from you.
0049                          ShowMessage(0790) [es:bx+0xf8] = But if you are indeed ready to enter the lower depths, you will no longer need Cleowyn's toys.
0056 EB 0D                    jmp 0x65
0058                          ShowMessage(07EF) [es:bx+0xf8] = The Human Wizard smiles sheepishly and teleports somewhere else.
0065                          RETURN

Functn0C: "NPCCHATB"
0000                          BEGIN
0003                          ShowMessage(0830) [es:bx+0xf8] = You encounter a sleepy Troll Knight.
0010                          ShowPortrait(001B) [es:bx+0xd4]
001D                          UnknownFunction(000F) [es:bx+0xec]
002A 3D 09 00                 cmp ax, 0x9
002D 77 1C                    ja 0x4b
002F                          ShowMessage(0855) [es:bx+0xf8] = The Galabryan kings brought the great wizard Arnakkian Slowfoot to Twinion. The island grew famous and rich thanks to this wizard.
003C                          ShowMessage(08D8) [es:bx+0xf8] = But the wizard had his own schemes, and soon he and good King Leowyn Galabryan were at loggerheads. Supposedly, the wizard had the king assassinated.
0049 EB 0D                    jmp 0x58
004B                          ShowMessage(096E) [es:bx+0xf8] = The Troll Knight blinks at you dumbly and falls asleep.
0058                          RETURN

03FC: The O Rune Key unlocked the door.
041E: The door is locked. It requires a special key.
044D: Skeletons on the floor stir to life.
0472: Among the bones on the floor are pieces of gold. The bones begin to move.
04BC: A clutch of Large-Uns growl at you.
04E0: A Large-Un tosses a piece of wood aside as he and his friends attack.
0526: You have interrupted a Lizardite religious service.
055A: As you enter the room, the O Rune Key vanishes.
058A: You see a Lizardite proudly wearing the Crown of King Cleowyn.
05C9: You run into the living skeletons of King Cleowyn's guards.
0605: One of the skeletons approaching you holds a piece of paper in its bony hand.
0653: Reptilian bodies stir as you draw near.
067B: The stairs through the west gateway lead down a level.
06B2: A Human Wizard teleports into the room you occupy.
06E5: Be careful when you find the way to open the door that leads to the nether depths of this dungeon.
0748: All quest items from Cleowyn's Palace levels will be stripped from you.
0790: But if you are indeed ready to enter the lower depths, you will no longer need Cleowyn's toys.
07EF: The Human Wizard smiles sheepishly and teleports somewhere else.
0830: You encounter a sleepy Troll Knight.
0855: The Galabryan kings brought the great wizard Arnakkian Slowfoot to Twinion. The island grew famous and rich thanks to this wizard.
08D8: But the wizard had his own schemes, and soon he and good King Leowyn Galabryan were at loggerheads. Supposedly, the wizard had the king assassinated.
096E: The Troll Knight blinks at you dumbly and falls asleep.
