Functn01: "TOCORRA"
0000                          BEGIN
0003                          GoMap(03, F0, 02, 02)
001E                          RETURN

Functn02: "IMPILLAR"
0000                          BEGIN
0003 33 C0                    xor ax, ax
0005 50                       push ax
0006 C4 5E 06                 les bx, [bp+0x6]
0009 26 FF 5F 20              call far word [es:bx+0x20]
000D 50                       push ax
000E C4 5E 06                 les bx, [bp+0x6]
0011 26 FF 5F 34              call far word [es:bx+0x34]
0015 59                       pop cx
0016 59                       pop cx
0017                          RETURN

Functn03: "ILPILLAR"
0000                          BEGIN
0003                          ShowMessage(03FC) = As you step forward, the column slides away.
0010 B8 01 00                 mov ax, 0x1
0013 50                       push ax
0014 B8 7F 00                 mov ax, 0x7f
0017 50                       push ax
0018 C4 5E 06                 les bx, [bp+0x6]
001B 26 FF 5F 34              call far word [es:bx+0x34]
001F 59                       pop cx
0020 59                       pop cx
0021                          RETURN

Functn04: "PASSCOLM"
0000                          BEGIN
0003                          ShowMessage(0429) = As you step forward, the column slides away.
0010 B8 01 00                 mov ax, 0x1
0013 50                       push ax
0014 B8 F5 00                 mov ax, 0xf5
0017 50                       push ax
0018 C4 5E 06                 les bx, [bp+0x6]
001B 26 FF 5F 34              call far word [es:bx+0x34]
001F 59                       pop cx
0020 59                       pop cx
0021                          RETURN

Functn05: "TAPESTRY"
0000                          BEGIN
0003                          ax = HasItem(F8) ? 1 : 0 [es:bx+0x50]
0011 74 1C                    jz 0x2f
0013                          ShowMessage(0456) = Runes appear on the tapestry...
0020                          ShowRunes(5004) [es:bx+0xf4] = Imps have hidden the Crown, Robe and Scepter. Only a master of the runes may find them. Two-faced Y is at the center of the quest. From Y, open O and E and I. When a rune key is used correctly, it will disappear.
002D EB 0D                    jmp 0x3c
002F                          ShowMessage(054B) = You see an ornate tapestry. The middle of the tapestry is blank.
003C                          RETURN

Functn06: "KNGGHST"
0000                          BEGIN
0003                          ax = HasItem(F8) ? 1 : 0 [es:bx+0x50]
0011 74 48                    jz 0x5b
0013                          ShowMessage(058C) = King Cleowyn's angry spirit appears.
0020                          ShowMessage(05B1) = He tears the Key to the Palace away from you as he and his courtiers attack.
002D B8 E8 03                 mov ax, 0x3e8
0030 50                       push ax
0031 33 C0                    xor ax, ax
0033 50                       push ax
0034 33 C0                    xor ax, ax
0036 50                       push ax
0037 33 C0                    xor ax, ax
0039 50                       push ax
003A B8 B7 00                 mov ax, 0xb7
003D 50                       push ax
003E B8 CF 00                 mov ax, 0xcf
0041 50                       push ax
0042 C4 5E 06                 les bx, [bp+0x6]
0045 26 FF 9F D8 00           call far word [es:bx+0xd8]
004A 83 C4 0C                 add sp, 0xc
004D B8 D9 00                 mov ax, 0xd9
0050 50                       push ax
0051 C4 5E 06                 les bx, [bp+0x6]
0054 26 FF 5F 4C              call far word [es:bx+0x4c]
0058 59                       pop cx
0059 EB 2E                    jmp 0x89
005B                          ShowMessage(05FE) = King Cleowyn and his dead courtiers appear to challenge you.
0068 B8 98 3A                 mov ax, 0x3a98
006B 50                       push ax
006C 33 C0                    xor ax, ax
006E 50                       push ax
006F 33 C0                    xor ax, ax
0071 50                       push ax
0072 B8 F8 00                 mov ax, 0xf8
0075 50                       push ax
0076 B8 B7 00                 mov ax, 0xb7
0079 50                       push ax
007A B8 CF 00                 mov ax, 0xcf
007D 50                       push ax
007E C4 5E 06                 les bx, [bp+0x6]
0081 26 FF 9F D8 00           call far word [es:bx+0xd8]
0086 83 C4 0C                 add sp, 0xc
0089                          SetEncData(25, 05)
009B                          SetEncData(01, 01)
00AD                          SetEncData(08, 02)
00BF                          RETURN

Functn07: "PIT"
0000                          BEGIN
0003 C4 5E 06                 les bx, [bp+0x6]
0006 26 FF 5F 20              call far word [es:bx+0x20]
000A 50                       push ax
000B B8 01 00                 mov ax, 0x1
000E 50                       push ax
000F C4 5E 06                 les bx, [bp+0x6]
0012 26 FF 5F 38              call far word [es:bx+0x38]
0016 59                       pop cx
0017 59                       pop cx
0018                          ShowMessage(063B) = You fall into a deep, deep pit.
0025 C4 5E 06                 les bx, [bp+0x6]
0028 26 FF 9F F0 00           call far word [es:bx+0xf0]
002D 3D 01 00                 cmp ax, 0x1
0030 75 2A                    jnz 0x5c
0032 B8 FA 00                 mov ax, 0xfa
0035 50                       push ax
0036 C4 5E 06                 les bx, [bp+0x6]
0039 26 FF 9F 90 00           call far word [es:bx+0x90]
003E 59                       pop cx
003F                          GoMap(02, E0, 01, 04)
005A EB 35                    jmp 0x91
005C                          ShowMessage(065B) = Your body provides a soft landing pad for the rest of your party.
0069 B8 90 01                 mov ax, 0x190
006C 50                       push ax
006D C4 5E 06                 les bx, [bp+0x6]
0070 26 FF 9F 90 00           call far word [es:bx+0x90]
0075 59                       pop cx
0076                          GoMap(02, E0, 01, 04)
0091                          RETURN

Functn08: "AVRMNSTR"
0000                          BEGIN
0003 C4 5E 06                 les bx, [bp+0x6]
0006 26 FF 9F F0 00           call far word [es:bx+0xf0]
000B 3D 01 00                 cmp ax, 0x1
000E 75 39                    jnz 0x49
0010                          SetEncData(19, 01)
0022                          SetEncData(1A, 02)
0034                          SetEncData(19, 03)
0046 E9 F4 00                 jmp 0x13d
0049 C4 5E 06                 les bx, [bp+0x6]
004C 26 FF 9F F0 00           call far word [es:bx+0xf0]
0051 3D 02 00                 cmp ax, 0x2
0054 74 0D                    jz 0x63
0056 C4 5E 06                 les bx, [bp+0x6]
0059 26 FF 9F F0 00           call far word [es:bx+0xf0]
005E 3D 03 00                 cmp ax, 0x3
0061 75 6E                    jnz 0xd1
0063                          SetEncData(1C, 01)
0075                          SetEncData(1C, 02)
0087                          SetEncData(1C, 03)
0099                          SetEncData(1C, 04)
00AB                          SetEncData(1B, 05)
00BD                          SetEncData(1B, 06)
00CF EB 6C                    jmp 0x13d
00D1                          SetEncData(1B, 01)
00E3                          SetEncData(1B, 02)
00F5                          SetEncData(1B, 03)
0107                          SetEncData(1B, 04)
0119                          SetEncData(1B, 05)
012B                          SetEncData(1B, 06)
013D                          RETURN

Functn09: "STRMNSTR"
0000                          BEGIN
0003 C4 5E 06                 les bx, [bp+0x6]
0006 26 FF 9F F0 00           call far word [es:bx+0xf0]
000B 3D 01 00                 cmp ax, 0x1
000E 74 0D                    jz 0x1d
0010 C4 5E 06                 les bx, [bp+0x6]
0013 26 FF 9F F0 00           call far word [es:bx+0xf0]
0018 3D 02 00                 cmp ax, 0x2
001B 75 27                    jnz 0x44
001D                          SetEncData(1F, 01)
002F                          SetEncData(1F, 02)
0041 E9 B1 00                 jmp 0xf5
0044 C4 5E 06                 les bx, [bp+0x6]
0047 26 FF 9F F0 00           call far word [es:bx+0xf0]
004C 3D 03 00                 cmp ax, 0x3
004F 75 4A                    jnz 0x9b
0051                          SetEncData(20, 01)
0063                          SetEncData(20, 02)
0075                          SetEncData(1E, 03)
0087                          SetEncData(1E, 04)
0099 EB 5A                    jmp 0xf5
009B                          SetEncData(1F, 01)
00AD                          SetEncData(1F, 02)
00BF                          SetEncData(1F, 03)
00D1                          SetEncData(1F, 04)
00E3                          SetEncData(20, 05)
00F5                          RETURN

Functn0A: "TUFMNSTR"
0000                          BEGIN
0003 C4 5E 06                 les bx, [bp+0x6]
0006 26 FF 9F F0 00           call far word [es:bx+0xf0]
000B 3D 01 00                 cmp ax, 0x1
000E 75 27                    jnz 0x37
0010                          SetEncData(22, 01)
0022                          SetEncData(22, 01)
0034 E9 1B 01                 jmp 0x152
0037 C4 5E 06                 les bx, [bp+0x6]
003A 26 FF 9F F0 00           call far word [es:bx+0xf0]
003F 3D 02 00                 cmp ax, 0x2
0042 75 39                    jnz 0x7d
0044                          SetEncData(23, 01)
0056                          SetEncData(21, 02)
0068                          SetEncData(21, 03)
007A E9 D5 00                 jmp 0x152
007D C4 5E 06                 les bx, [bp+0x6]
0080 26 FF 9F F0 00           call far word [es:bx+0xf0]
0085 3D 03 00                 cmp ax, 0x3
0088 75 5C                    jnz 0xe6
008A                          SetEncData(21, 01)
009C                          SetEncData(21, 02)
00AE                          SetEncData(24, 03)
00C0                          SetEncData(24, 04)
00D2                          SetEncData(23, 05)
00E4 EB 6C                    jmp 0x152
00E6                          SetEncData(23, 01)
00F8                          SetEncData(23, 02)
010A                          SetEncData(23, 03)
011C                          SetEncData(23, 04)
012E                          SetEncData(22, 05)
0140                          SetEncData(22, 06)
0152                          RETURN

Functn0C: "WEAPBENC"
0000                          BEGIN
0003                          ax = HasItem(35) ? 1 : 0 [es:bx+0x50]
0011 74 2E                    jz 0x41
0013                          ShowMessage(069D) = You feel the tickle of cobwebs on your neck.
0020 B8 2C 01                 mov ax, 0x12c
0023 50                       push ax
0024 33 C0                    xor ax, ax
0026 50                       push ax
0027 33 C0                    xor ax, ax
0029 50                       push ax
002A 33 C0                    xor ax, ax
002C 50                       push ax
002D 33 C0                    xor ax, ax
002F 50                       push ax
0030 B8 B6 00                 mov ax, 0xb6
0033 50                       push ax
0034 C4 5E 06                 les bx, [bp+0x6]
0037 26 FF 9F D8 00           call far word [es:bx+0xd8]
003C 83 C4 0C                 add sp, 0xc
003F EB 2D                    jmp 0x6e
0041 B8 E8 03                 mov ax, 0x3e8
0044 50                       push ax
0045 33 C0                    xor ax, ax
0047 50                       push ax
0048 33 C0                    xor ax, ax
004A 50                       push ax
004B 33 C0                    xor ax, ax
004D 50                       push ax
004E B8 CF 00                 mov ax, 0xcf
0051 50                       push ax
0052 B8 35 00                 mov ax, 0x35
0055 50                       push ax
0056 C4 5E 06                 les bx, [bp+0x6]
0059 26 FF 9F D8 00           call far word [es:bx+0xd8]
005E 83 C4 0C                 add sp, 0xc
0061                          ShowMessage(06CA) = Spiders are using a spear in the middle of the floor as a support for their webs.
006E C4 5E 06                 les bx, [bp+0x6]
0071 26 FF 9F F0 00           call far word [es:bx+0xf0]
0076 3D 01 00                 cmp ax, 0x1
0079 74 0D                    jz 0x88
007B C4 5E 06                 les bx, [bp+0x6]
007E 26 FF 9F F0 00           call far word [es:bx+0xf0]
0083 3D 02 00                 cmp ax, 0x2
0086 75 27                    jnz 0xaf
0088                          SetEncData(19, 01)
009A                          SetEncData(1A, 02)
00AC E9 8D 00                 jmp 0x13c
00AF C4 5E 06                 les bx, [bp+0x6]
00B2 26 FF 9F F0 00           call far word [es:bx+0xf0]
00B7 3D 03 00                 cmp ax, 0x3
00BA 75 38                    jnz 0xf4
00BC                          SetEncData(19, 01)
00CE                          SetEncData(19, 02)
00E0                          SetEncData(1A, 03)
00F2 EB 48                    jmp 0x13c
00F4                          SetEncData(19, 01)
0106                          SetEncData(1A, 02)
0118                          SetEncData(1B, 03)
012A                          SetEncData(1C, 04)
013C                          RETURN

Functn0D: "WEAPAENC"
0000                          BEGIN
0003 B8 64 19                 mov ax, 0x1964
0006 50                       push ax
0007 33 C0                    xor ax, ax
0009 50                       push ax
000A 33 C0                    xor ax, ax
000C 50                       push ax
000D 33 C0                    xor ax, ax
000F 50                       push ax
0010 33 C0                    xor ax, ax
0012 50                       push ax
0013 B8 3B 00                 mov ax, 0x3b
0016 50                       push ax
0017 C4 5E 06                 les bx, [bp+0x6]
001A 26 FF 9F D8 00           call far word [es:bx+0xd8]
001F 83 C4 0C                 add sp, 0xc
0022                          ShowMessage(071C) = You see a weapon on the floor and step forward. Banshees sense your presence and gather to attack.
002F C4 5E 06                 les bx, [bp+0x6]
0032 26 FF 9F F0 00           call far word [es:bx+0xf0]
0037 3D 01 00                 cmp ax, 0x1
003A 74 0D                    jz 0x49
003C C4 5E 06                 les bx, [bp+0x6]
003F 26 FF 9F F0 00           call far word [es:bx+0xf0]
0044 3D 02 00                 cmp ax, 0x2
0047 75 39                    jnz 0x82
0049                          SetEncData(21, 01)
005B                          SetEncData(22, 02)
006D                          SetEncData(21, 03)
007F E9 D5 00                 jmp 0x157
0082 C4 5E 06                 les bx, [bp+0x6]
0085 26 FF 9F F0 00           call far word [es:bx+0xf0]
008A 3D 03 00                 cmp ax, 0x3
008D 75 5C                    jnz 0xeb
008F                          SetEncData(22, 01)
00A1                          SetEncData(22, 02)
00B3                          SetEncData(21, 03)
00C5                          SetEncData(24, 04)
00D7                          SetEncData(23, 05)
00E9 EB 6C                    jmp 0x157
00EB                          SetEncData(23, 01)
00FD                          SetEncData(23, 02)
010F                          SetEncData(21, 03)
0121                          SetEncData(21, 04)
0133                          SetEncData(24, 05)
0145                          SetEncData(24, 06)
0157                          RETURN

Functn0E: "WEAPCENC"
0000                          BEGIN
0003                          ax = HasItem(16) ? 1 : 0 [es:bx+0x50]
0011 74 2E                    jz 0x41
0013                          ShowMessage(077F) = Nightmares emerge from the shadows.
0020 B8 C8 00                 mov ax, 0xc8
0023 50                       push ax
0024 33 C0                    xor ax, ax
0026 50                       push ax
0027 33 C0                    xor ax, ax
0029 50                       push ax
002A 33 C0                    xor ax, ax
002C 50                       push ax
002D 33 C0                    xor ax, ax
002F 50                       push ax
0030 B8 CE 00                 mov ax, 0xce
0033 50                       push ax
0034 C4 5E 06                 les bx, [bp+0x6]
0037 26 FF 9F D8 00           call far word [es:bx+0xd8]
003C 83 C4 0C                 add sp, 0xc
003F EB 2D                    jmp 0x6e
0041 B8 B8 0B                 mov ax, 0xbb8
0044 50                       push ax
0045 33 C0                    xor ax, ax
0047 50                       push ax
0048 33 C0                    xor ax, ax
004A 50                       push ax
004B 33 C0                    xor ax, ax
004D 50                       push ax
004E B8 CF 00                 mov ax, 0xcf
0051 50                       push ax
0052 B8 16 00                 mov ax, 0x16
0055 50                       push ax
0056 C4 5E 06                 les bx, [bp+0x6]
0059 26 FF 9F D8 00           call far word [es:bx+0xd8]
005E 83 C4 0C                 add sp, 0xc
0061                          ShowMessage(07A3) = A group of Nightmares claw at an axe on the floor.
006E C4 5E 06                 les bx, [bp+0x6]
0071 26 FF 9F F0 00           call far word [es:bx+0xf0]
0076 3D 01 00                 cmp ax, 0x1
0079 74 0D                    jz 0x88
007B C4 5E 06                 les bx, [bp+0x6]
007E 26 FF 9F F0 00           call far word [es:bx+0xf0]
0083 3D 02 00                 cmp ax, 0x2
0086 75 39                    jnz 0xc1
0088                          SetEncData(1E, 01)
009A                          SetEncData(1E, 02)
00AC                          SetEncData(1D, 03)
00BE E9 D5 00                 jmp 0x196
00C1 C4 5E 06                 les bx, [bp+0x6]
00C4 26 FF 9F F0 00           call far word [es:bx+0xf0]
00C9 3D 03 00                 cmp ax, 0x3
00CC 75 5C                    jnz 0x12a
00CE                          SetEncData(1F, 01)
00E0                          SetEncData(20, 02)
00F2                          SetEncData(1E, 03)
0104                          SetEncData(1D, 04)
0116                          SetEncData(1F, 05)
0128 EB 6C                    jmp 0x196
012A                          SetEncData(1F, 01)
013C                          SetEncData(1F, 02)
014E                          SetEncData(20, 03)
0160                          SetEncData(20, 04)
0172                          SetEncData(1F, 05)
0184                          SetEncData(1F, 06)
0196                          RETURN

Functn0F: "SHLDENC"
0000                          BEGIN
0003                          ax = HasItem(4E) ? 1 : 0 [es:bx+0x50]
0011 74 2F                    jz 0x42
0013                          ShowMessage(07D6) = You stumble upon some Zombies, eating the remains of a former adventurer.
0020 B8 90 01                 mov ax, 0x190
0023 50                       push ax
0024 33 C0                    xor ax, ax
0026 50                       push ax
0027 33 C0                    xor ax, ax
0029 50                       push ax
002A 33 C0                    xor ax, ax
002C 50                       push ax
002D B8 B5 00                 mov ax, 0xb5
0030 50                       push ax
0031 B8 CE 00                 mov ax, 0xce
0034 50                       push ax
0035 C4 5E 06                 les bx, [bp+0x6]
0038 26 FF 9F D8 00           call far word [es:bx+0xd8]
003D 83 C4 0C                 add sp, 0xc
0040 EB 2D                    jmp 0x6f
0042 B8 74 0E                 mov ax, 0xe74
0045 50                       push ax
0046 33 C0                    xor ax, ax
0048 50                       push ax
0049 33 C0                    xor ax, ax
004B 50                       push ax
004C 33 C0                    xor ax, ax
004E 50                       push ax
004F B8 B5 00                 mov ax, 0xb5
0052 50                       push ax
0053 B8 4E 00                 mov ax, 0x4e
0056 50                       push ax
0057 C4 5E 06                 les bx, [bp+0x6]
005A 26 FF 9F D8 00           call far word [es:bx+0xd8]
005F 83 C4 0C                 add sp, 0xc
0062                          ShowMessage(0820) = The shuffle of heavy feet put you on your guard. One of the things kicks a shield out of its way.
006F C4 5E 06                 les bx, [bp+0x6]
0072 26 FF 9F F0 00           call far word [es:bx+0xf0]
0077 3D 01 00                 cmp ax, 0x1
007A 74 0D                    jz 0x89
007C C4 5E 06                 les bx, [bp+0x6]
007F 26 FF 9F F0 00           call far word [es:bx+0xf0]
0084 3D 02 00                 cmp ax, 0x2
0087 75 4B                    jnz 0xd4
0089                          SetEncData(11, 01)
009B                          SetEncData(12, 02)
00AD                          SetEncData(12, 03)
00BF                          SetEncData(12, 04)
00D1 E9 E7 00                 jmp 0x1bb
00D4 C4 5E 06                 les bx, [bp+0x6]
00D7 26 FF 9F F0 00           call far word [es:bx+0xf0]
00DC 3D 03 00                 cmp ax, 0x3
00DF 75 6E                    jnz 0x14f
00E1                          SetEncData(12, 01)
00F3                          SetEncData(12, 02)
0105                          SetEncData(13, 03)
0117                          SetEncData(13, 04)
0129                          SetEncData(11, 05)
013B                          SetEncData(11, 06)
014D EB 6C                    jmp 0x1bb
014F                          SetEncData(14, 01)
0161                          SetEncData(14, 02)
0173                          SetEncData(13, 03)
0185                          SetEncData(13, 04)
0197                          SetEncData(14, 05)
01A9                          SetEncData(14, 06)
01BB                          RETURN

Functn10: "JACKTENC"
0000                          BEGIN
0003                          ax = HasItem(7A) ? 1 : 0 [es:bx+0x50]
0011 74 2F                    jz 0x42
0013                          ShowMessage(0882) = Ghosts rise from the floor to haunt you.
0020 B8 64 00                 mov ax, 0x64
0023 50                       push ax
0024 33 C0                    xor ax, ax
0026 50                       push ax
0027 33 C0                    xor ax, ax
0029 50                       push ax
002A 33 C0                    xor ax, ax
002C 50                       push ax
002D B8 B6 00                 mov ax, 0xb6
0030 50                       push ax
0031 B8 CE 00                 mov ax, 0xce
0034 50                       push ax
0035 C4 5E 06                 les bx, [bp+0x6]
0038 26 FF 9F D8 00           call far word [es:bx+0xd8]
003D 83 C4 0C                 add sp, 0xc
0040 EB 2D                    jmp 0x6f
0042 B8 A0 0F                 mov ax, 0xfa0
0045 50                       push ax
0046 33 C0                    xor ax, ax
0048 50                       push ax
0049 33 C0                    xor ax, ax
004B 50                       push ax
004C 33 C0                    xor ax, ax
004E 50                       push ax
004F B8 CE 00                 mov ax, 0xce
0052 50                       push ax
0053 B8 7A 00                 mov ax, 0x7a
0056 50                       push ax
0057 C4 5E 06                 les bx, [bp+0x6]
005A 26 FF 9F D8 00           call far word [es:bx+0xd8]
005F 83 C4 0C                 add sp, 0xc
0062                          ShowMessage(08AB) = Ghosts are gathered around a jacket on the floor. They seem to be pondering its purpose.
006F C4 5E 06                 les bx, [bp+0x6]
0072 26 FF 9F F0 00           call far word [es:bx+0xf0]
0077 3D 01 00                 cmp ax, 0x1
007A 74 0D                    jz 0x89
007C C4 5E 06                 les bx, [bp+0x6]
007F 26 FF 9F F0 00           call far word [es:bx+0xf0]
0084 3D 02 00                 cmp ax, 0x2
0087 75 27                    jnz 0xb0
0089                          SetEncData(03, 01)
009B                          SetEncData(02, 02)
00AD E9 8D 00                 jmp 0x13d
00B0 C4 5E 06                 les bx, [bp+0x6]
00B3 26 FF 9F F0 00           call far word [es:bx+0xf0]
00B8 3D 03 00                 cmp ax, 0x3
00BB 75 38                    jnz 0xf5
00BD                          SetEncData(03, 01)
00CF                          SetEncData(01, 02)
00E1                          SetEncData(04, 03)
00F3 EB 48                    jmp 0x13d
00F5                          SetEncData(01, 01)
0107                          SetEncData(03, 02)
0119                          SetEncData(02, 03)
012B                          SetEncData(04, 04)
013D                          RETURN

Functn11: "ARMRBENC"
0000                          BEGIN
0003                          ax = HasItem(76) ? 1 : 0 [es:bx+0x50]
0011 74 2E                    jz 0x41
0013                          ShowMessage(0904) = Skeletons of King Cleowyn's elite palace guard advance on you.
0020 B8 4B 00                 mov ax, 0x4b
0023 50                       push ax
0024 33 C0                    xor ax, ax
0026 50                       push ax
0027 33 C0                    xor ax, ax
0029 50                       push ax
002A 33 C0                    xor ax, ax
002C 50                       push ax
002D 33 C0                    xor ax, ax
002F 50                       push ax
0030 B8 CE 00                 mov ax, 0xce
0033 50                       push ax
0034 C4 5E 06                 les bx, [bp+0x6]
0037 26 FF 9F D8 00           call far word [es:bx+0xd8]
003C 83 C4 0C                 add sp, 0xc
003F EB 2D                    jmp 0x6e
0041 B8 D0 07                 mov ax, 0x7d0
0044 50                       push ax
0045 33 C0                    xor ax, ax
0047 50                       push ax
0048 33 C0                    xor ax, ax
004A 50                       push ax
004B 33 C0                    xor ax, ax
004D 50                       push ax
004E B8 CE 00                 mov ax, 0xce
0051 50                       push ax
0052 B8 76 00                 mov ax, 0x76
0055 50                       push ax
0056 C4 5E 06                 les bx, [bp+0x6]
0059 26 FF 9F D8 00           call far word [es:bx+0xd8]
005E 83 C4 0C                 add sp, 0xc
0061                          ShowMessage(0943) = The leader of the dead palace guards that surrounds you wears rusty chainmail.
006E C4 5E 06                 les bx, [bp+0x6]
0071 26 FF 9F F0 00           call far word [es:bx+0xf0]
0076 3D 01 00                 cmp ax, 0x1
0079 74 0D                    jz 0x88
007B C4 5E 06                 les bx, [bp+0x6]
007E 26 FF 9F F0 00           call far word [es:bx+0xf0]
0083 3D 02 00                 cmp ax, 0x2
0086 75 39                    jnz 0xc1
0088                          SetEncData(09, 01)
009A                          SetEncData(0A, 02)
00AC                          SetEncData(09, 03)
00BE E9 D5 00                 jmp 0x196
00C1 C4 5E 06                 les bx, [bp+0x6]
00C4 26 FF 9F F0 00           call far word [es:bx+0xf0]
00C9 3D 03 00                 cmp ax, 0x3
00CC 75 5C                    jnz 0x12a
00CE                          SetEncData(0A, 01)
00E0                          SetEncData(0A, 02)
00F2                          SetEncData(0B, 03)
0104                          SetEncData(09, 04)
0116                          SetEncData(09, 05)
0128 EB 6C                    jmp 0x196
012A                          SetEncData(0A, 01)
013C                          SetEncData(0A, 02)
014E                          SetEncData(0B, 03)
0160                          SetEncData(0B, 04)
0172                          SetEncData(0C, 05)
0184                          SetEncData(0C, 06)
0196                          RETURN

Functn12: "RUNES"
0000                          BEGIN
0003                          ShowMessage(0992) = There are runes on the wall...
0010                          ShowRunes(5009) [es:bx+0xf4] = What you see is not always what is real.
001D                          RETURN

Functn15: "LKPKDOOR"
0000                          BEGIN
0003 B8 C4 00                 mov ax, 0xc4
0006 50                       push ax
0007 B8 C1 00                 mov ax, 0xc1
000A 50                       push ax
000B C4 5E 06                 les bx, [bp+0x6]
000E 26 FF 5F 54              call far word [es:bx+0x54]
0012 59                       pop cx
0013 59                       pop cx
0014 0B C0                    or ax, ax
0016 75 11                    jnz 0x29
0018 B8 0E 00                 mov ax, 0xe
001B 50                       push ax
001C C4 5E 06                 les bx, [bp+0x6]
001F 26 FF 5F 58              call far word [es:bx+0x58]
0023 59                       pop cx
0024 3D 05 00                 cmp ax, 0x5
0027 72 4B                    jb 0x74
0029 B8 01 00                 mov ax, 0x1
002C 50                       push ax
002D C4 5E 06                 les bx, [bp+0x6]
0030 26 FF 5F 24              call far word [es:bx+0x24]
0034 50                       push ax
0035 C4 5E 06                 les bx, [bp+0x6]
0038 26 FF 5F 20              call far word [es:bx+0x20]
003C 50                       push ax
003D C4 5E 06                 les bx, [bp+0x6]
0040 26 FF 5F 2C              call far word [es:bx+0x2c]
0044 83 C4 06                 add sp, 0x6
0047 C4 5E 06                 les bx, [bp+0x6]
004A 26 FF 5F 24              call far word [es:bx+0x24]
004E 50                       push ax
004F C4 5E 06                 les bx, [bp+0x6]
0052 26 FF 5F 20              call far word [es:bx+0x20]
0056 50                       push ax
0057 B8 01 00                 mov ax, 0x1
005A 50                       push ax
005B C4 5E 06                 les bx, [bp+0x6]
005E 26 FF 5F 30              call far word [es:bx+0x30]
0062 83 C4 06                 add sp, 0x6
0065                          ShowMessage(09DA) = You successfully picked the locked door.
0072 EB 2A                    jmp 0x9e
0074 33 C0                    xor ax, ax
0076 50                       push ax
0077 C4 5E 06                 les bx, [bp+0x6]
007A 26 FF 5F 24              call far word [es:bx+0x24]
007E 50                       push ax
007F C4 5E 06                 les bx, [bp+0x6]
0082 26 FF 5F 20              call far word [es:bx+0x20]
0086 50                       push ax
0087 C4 5E 06                 les bx, [bp+0x6]
008A 26 FF 5F 2C              call far word [es:bx+0x2c]
008E 83 C4 06                 add sp, 0x6
0091                          ShowMessage(0A03) = The door is locked.
009E                          RETURN

Functn16: "STRDOOR"
0000                          BEGIN
0003 33 C0                    xor ax, ax
0005 50                       push ax
0006 C4 5E 06                 les bx, [bp+0x6]
0009 26 FF 9F A4 00           call far word [es:bx+0xa4]
000E 59                       pop cx
000F 3D 0C 00                 cmp ax, 0xc
0012 72 4B                    jb 0x5f
0014                          ShowMessage(0A17) = You manage to open the door by brute force.
0021 C4 5E 06                 les bx, [bp+0x6]
0024 26 FF 5F 24              call far word [es:bx+0x24]
0028 50                       push ax
0029 C4 5E 06                 les bx, [bp+0x6]
002C 26 FF 5F 20              call far word [es:bx+0x20]
0030 50                       push ax
0031 B8 01 00                 mov ax, 0x1
0034 50                       push ax
0035 C4 5E 06                 les bx, [bp+0x6]
0038 26 FF 5F 30              call far word [es:bx+0x30]
003C 83 C4 06                 add sp, 0x6
003F B8 01 00                 mov ax, 0x1
0042 50                       push ax
0043 C4 5E 06                 les bx, [bp+0x6]
0046 26 FF 5F 24              call far word [es:bx+0x24]
004A 50                       push ax
004B C4 5E 06                 les bx, [bp+0x6]
004E 26 FF 5F 20              call far word [es:bx+0x20]
0052 50                       push ax
0053 C4 5E 06                 les bx, [bp+0x6]
0056 26 FF 5F 2C              call far word [es:bx+0x2c]
005A 83 C4 06                 add sp, 0x6
005D EB 2A                    jmp 0x89
005F                          ShowMessage(0A43) = You are not strong enough to force the door open.
006C 33 C0                    xor ax, ax
006E 50                       push ax
006F C4 5E 06                 les bx, [bp+0x6]
0072 26 FF 5F 24              call far word [es:bx+0x24]
0076 50                       push ax
0077 C4 5E 06                 les bx, [bp+0x6]
007A 26 FF 5F 20              call far word [es:bx+0x20]
007E 50                       push ax
007F C4 5E 06                 les bx, [bp+0x6]
0082 26 FF 5F 2C              call far word [es:bx+0x2c]
0086 83 C4 06                 add sp, 0x6
0089                          RETURN

Functn17: "LKPKDOOR"
0000                          BEGIN
0003 B8 C4 00                 mov ax, 0xc4
0006 50                       push ax
0007 B8 C2 00                 mov ax, 0xc2
000A 50                       push ax
000B C4 5E 06                 les bx, [bp+0x6]
000E 26 FF 5F 54              call far word [es:bx+0x54]
0012 59                       pop cx
0013 59                       pop cx
0014 0B C0                    or ax, ax
0016 75 11                    jnz 0x29
0018 B8 0E 00                 mov ax, 0xe
001B 50                       push ax
001C C4 5E 06                 les bx, [bp+0x6]
001F 26 FF 5F 58              call far word [es:bx+0x58]
0023 59                       pop cx
0024 3D 08 00                 cmp ax, 0x8
0027 72 4B                    jb 0x74
0029 B8 01 00                 mov ax, 0x1
002C 50                       push ax
002D C4 5E 06                 les bx, [bp+0x6]
0030 26 FF 5F 24              call far word [es:bx+0x24]
0034 50                       push ax
0035 C4 5E 06                 les bx, [bp+0x6]
0038 26 FF 5F 20              call far word [es:bx+0x20]
003C 50                       push ax
003D C4 5E 06                 les bx, [bp+0x6]
0040 26 FF 5F 2C              call far word [es:bx+0x2c]
0044 83 C4 06                 add sp, 0x6
0047 C4 5E 06                 les bx, [bp+0x6]
004A 26 FF 5F 24              call far word [es:bx+0x24]
004E 50                       push ax
004F C4 5E 06                 les bx, [bp+0x6]
0052 26 FF 5F 20              call far word [es:bx+0x20]
0056 50                       push ax
0057 B8 01 00                 mov ax, 0x1
005A 50                       push ax
005B C4 5E 06                 les bx, [bp+0x6]
005E 26 FF 5F 30              call far word [es:bx+0x30]
0062 83 C4 06                 add sp, 0x6
0065                          ShowMessage(0A75) = You picked the lock of the door successfully.
0072 EB 2A                    jmp 0x9e
0074 33 C0                    xor ax, ax
0076 50                       push ax
0077 C4 5E 06                 les bx, [bp+0x6]
007A 26 FF 5F 24              call far word [es:bx+0x24]
007E 50                       push ax
007F C4 5E 06                 les bx, [bp+0x6]
0082 26 FF 5F 20              call far word [es:bx+0x20]
0086 50                       push ax
0087 C4 5E 06                 les bx, [bp+0x6]
008A 26 FF 5F 2C              call far word [es:bx+0x2c]
008E 83 C4 06                 add sp, 0x6
0091                          ShowMessage(0AA3) = The door is locked.
009E                          RETURN

Functn18: "TRAPDORA"
0000                          BEGIN
0003 B8 0D 00                 mov ax, 0xd
0006 50                       push ax
0007 C4 5E 06                 les bx, [bp+0x6]
000A 26 FF 5F 58              call far word [es:bx+0x58]
000E 59                       pop cx
000F 3D 0A 00                 cmp ax, 0xa
0012 73 3A                    jae 0x4e
0014 B8 17 00                 mov ax, 0x17
0017 50                       push ax
0018 C4 5E 06                 les bx, [bp+0x6]
001B 26 FF 5F 64              call far word [es:bx+0x64]
001F 59                       pop cx
0020 0B C0                    or ax, ax
0022 75 2A                    jnz 0x4e
0024 B8 A2 00                 mov ax, 0xa2
0027 50                       push ax
0028 B8 A2 00                 mov ax, 0xa2
002B 50                       push ax
002C C4 5E 06                 les bx, [bp+0x6]
002F 26 FF 5F 54              call far word [es:bx+0x54]
0033 59                       pop cx
0034 59                       pop cx
0035 0B C0                    or ax, ax
0037 75 15                    jnz 0x4e
0039 B8 BE 00                 mov ax, 0xbe
003C 50                       push ax
003D B8 BE 00                 mov ax, 0xbe
0040 50                       push ax
0041 C4 5E 06                 les bx, [bp+0x6]
0044 26 FF 5F 54              call far word [es:bx+0x54]
0048 59                       pop cx
0049 59                       pop cx
004A 0B C0                    or ax, ax
004C 74 2A                    jz 0x78
004E                          ShowMessage(0AB7) = You found a trapdoor on the floor.
005B                          GoMap(01, 82, 02, 03)
0076 EB 28                    jmp 0xa0
0078                          ShowMessage(0ADA) = You fall through a trapdoor.
0085                          GoMap(01, 82, 02, 03)
00A0                          RETURN

Functn19: "TRAPDORB"
0000                          BEGIN
0003 B8 0D 00                 mov ax, 0xd
0006 50                       push ax
0007 C4 5E 06                 les bx, [bp+0x6]
000A 26 FF 5F 58              call far word [es:bx+0x58]
000E 59                       pop cx
000F 3D 0A 00                 cmp ax, 0xa
0012 73 3A                    jae 0x4e
0014 B8 17 00                 mov ax, 0x17
0017 50                       push ax
0018 C4 5E 06                 les bx, [bp+0x6]
001B 26 FF 5F 64              call far word [es:bx+0x64]
001F 59                       pop cx
0020 0B C0                    or ax, ax
0022 75 2A                    jnz 0x4e
0024 B8 A2 00                 mov ax, 0xa2
0027 50                       push ax
0028 B8 A2 00                 mov ax, 0xa2
002B 50                       push ax
002C C4 5E 06                 les bx, [bp+0x6]
002F 26 FF 5F 54              call far word [es:bx+0x54]
0033 59                       pop cx
0034 59                       pop cx
0035 0B C0                    or ax, ax
0037 75 15                    jnz 0x4e
0039 B8 BE 00                 mov ax, 0xbe
003C 50                       push ax
003D B8 BE 00                 mov ax, 0xbe
0040 50                       push ax
0041 C4 5E 06                 les bx, [bp+0x6]
0044 26 FF 5F 54              call far word [es:bx+0x54]
0048 59                       pop cx
0049 59                       pop cx
004A 0B C0                    or ax, ax
004C 74 2A                    jz 0x78
004E                          ShowMessage(0AF7) = You found a trapdoor on the floor.
005B                          GoMap(01, 86, 02, 03)
0076 EB 28                    jmp 0xa0
0078                          ShowMessage(0B1A) = You fall through a trapdoor.
0085                          GoMap(01, 86, 02, 03)
00A0                          RETURN

Functn1A: "TRAPDORC"
0000                          BEGIN
0003 B8 0D 00                 mov ax, 0xd
0006 50                       push ax
0007 C4 5E 06                 les bx, [bp+0x6]
000A 26 FF 5F 58              call far word [es:bx+0x58]
000E 59                       pop cx
000F 3D 0A 00                 cmp ax, 0xa
0012 73 3A                    jae 0x4e
0014 B8 17 00                 mov ax, 0x17
0017 50                       push ax
0018 C4 5E 06                 les bx, [bp+0x6]
001B 26 FF 5F 64              call far word [es:bx+0x64]
001F 59                       pop cx
0020 0B C0                    or ax, ax
0022 75 2A                    jnz 0x4e
0024 B8 A2 00                 mov ax, 0xa2
0027 50                       push ax
0028 B8 A2 00                 mov ax, 0xa2
002B 50                       push ax
002C C4 5E 06                 les bx, [bp+0x6]
002F 26 FF 5F 54              call far word [es:bx+0x54]
0033 59                       pop cx
0034 59                       pop cx
0035 0B C0                    or ax, ax
0037 75 15                    jnz 0x4e
0039 B8 BE 00                 mov ax, 0xbe
003C 50                       push ax
003D B8 BE 00                 mov ax, 0xbe
0040 50                       push ax
0041 C4 5E 06                 les bx, [bp+0x6]
0044 26 FF 5F 54              call far word [es:bx+0x54]
0048 59                       pop cx
0049 59                       pop cx
004A 0B C0                    or ax, ax
004C 74 2A                    jz 0x78
004E                          ShowMessage(0B37) = You found a trapdoor on the floor.
005B                          GoMap(03, A0, 02, 03)
0076 EB 28                    jmp 0xa0
0078                          ShowMessage(0B5A) = You fall through a trapdoor.
0085                          GoMap(03, A0, 02, 03)
00A0                          RETURN

Functn1B: "TRAPDORD"
0000                          BEGIN
0003 B8 0D 00                 mov ax, 0xd
0006 50                       push ax
0007 C4 5E 06                 les bx, [bp+0x6]
000A 26 FF 5F 58              call far word [es:bx+0x58]
000E 59                       pop cx
000F 3D 0A 00                 cmp ax, 0xa
0012 73 3A                    jae 0x4e
0014 B8 17 00                 mov ax, 0x17
0017 50                       push ax
0018 C4 5E 06                 les bx, [bp+0x6]
001B 26 FF 5F 64              call far word [es:bx+0x64]
001F 59                       pop cx
0020 0B C0                    or ax, ax
0022 75 2A                    jnz 0x4e
0024 B8 A2 00                 mov ax, 0xa2
0027 50                       push ax
0028 B8 A2 00                 mov ax, 0xa2
002B 50                       push ax
002C C4 5E 06                 les bx, [bp+0x6]
002F 26 FF 5F 54              call far word [es:bx+0x54]
0033 59                       pop cx
0034 59                       pop cx
0035 0B C0                    or ax, ax
0037 75 15                    jnz 0x4e
0039 B8 BE 00                 mov ax, 0xbe
003C 50                       push ax
003D B8 BE 00                 mov ax, 0xbe
0040 50                       push ax
0041 C4 5E 06                 les bx, [bp+0x6]
0044 26 FF 5F 54              call far word [es:bx+0x54]
0048 59                       pop cx
0049 59                       pop cx
004A 0B C0                    or ax, ax
004C 74 2A                    jz 0x78
004E                          ShowMessage(0B77) = You found a trapdoor on the floor.
005B                          GoMap(03, A8, 02, 03)
0076 EB 28                    jmp 0xa0
0078                          ShowMessage(0B9A) = You fall through a trapdoor.
0085                          GoMap(03, A8, 02, 03)
00A0                          RETURN

Functn1C: "TRAPDORE"
0000                          BEGIN
0003 B8 0D 00                 mov ax, 0xd
0006 50                       push ax
0007 C4 5E 06                 les bx, [bp+0x6]
000A 26 FF 5F 58              call far word [es:bx+0x58]
000E 59                       pop cx
000F 3D 0A 00                 cmp ax, 0xa
0012 73 3A                    jae 0x4e
0014 B8 17 00                 mov ax, 0x17
0017 50                       push ax
0018 C4 5E 06                 les bx, [bp+0x6]
001B 26 FF 5F 64              call far word [es:bx+0x64]
001F 59                       pop cx
0020 0B C0                    or ax, ax
0022 75 2A                    jnz 0x4e
0024 B8 A2 00                 mov ax, 0xa2
0027 50                       push ax
0028 B8 A2 00                 mov ax, 0xa2
002B 50                       push ax
002C C4 5E 06                 les bx, [bp+0x6]
002F 26 FF 5F 54              call far word [es:bx+0x54]
0033 59                       pop cx
0034 59                       pop cx
0035 0B C0                    or ax, ax
0037 75 15                    jnz 0x4e
0039 B8 BE 00                 mov ax, 0xbe
003C 50                       push ax
003D B8 BE 00                 mov ax, 0xbe
0040 50                       push ax
0041 C4 5E 06                 les bx, [bp+0x6]
0044 26 FF 5F 54              call far word [es:bx+0x54]
0048 59                       pop cx
0049 59                       pop cx
004A 0B C0                    or ax, ax
004C 74 29                    jz 0x77
004E                          ShowMessage(0BB7) = You found a trapdoor on the floor.
005B                          GoMap(00, B3, 02, 03)
0075 EB 27                    jmp 0x9e
0077                          ShowMessage(0BDA) = You fall through a trapdoor.
0084                          GoMap(00, B3, 02, 03)
009E                          RETURN

Functn1D: "TRAPDORF"
0000                          BEGIN
0003 B8 0D 00                 mov ax, 0xd
0006 50                       push ax
0007 C4 5E 06                 les bx, [bp+0x6]
000A 26 FF 5F 58              call far word [es:bx+0x58]
000E 59                       pop cx
000F 3D 0A 00                 cmp ax, 0xa
0012 73 3A                    jae 0x4e
0014 B8 17 00                 mov ax, 0x17
0017 50                       push ax
0018 C4 5E 06                 les bx, [bp+0x6]
001B 26 FF 5F 64              call far word [es:bx+0x64]
001F 59                       pop cx
0020 0B C0                    or ax, ax
0022 75 2A                    jnz 0x4e
0024 B8 A2 00                 mov ax, 0xa2
0027 50                       push ax
0028 B8 A2 00                 mov ax, 0xa2
002B 50                       push ax
002C C4 5E 06                 les bx, [bp+0x6]
002F 26 FF 5F 54              call far word [es:bx+0x54]
0033 59                       pop cx
0034 59                       pop cx
0035 0B C0                    or ax, ax
0037 75 15                    jnz 0x4e
0039 B8 BE 00                 mov ax, 0xbe
003C 50                       push ax
003D B8 BE 00                 mov ax, 0xbe
0040 50                       push ax
0041 C4 5E 06                 les bx, [bp+0x6]
0044 26 FF 5F 54              call far word [es:bx+0x54]
0048 59                       pop cx
0049 59                       pop cx
004A 0B C0                    or ax, ax
004C 74 2A                    jz 0x78
004E                          ShowMessage(0BF7) = You found a trapdoor on the floor.
005B                          GoMap(02, B5, 02, 03)
0076 EB 28                    jmp 0xa0
0078                          ShowMessage(0C1A) = You fall through a trapdoor.
0085                          GoMap(02, B5, 02, 03)
00A0                          RETURN

Functn1E: "TRAPDORG"
0000                          BEGIN
0003 B8 0D 00                 mov ax, 0xd
0006 50                       push ax
0007 C4 5E 06                 les bx, [bp+0x6]
000A 26 FF 5F 58              call far word [es:bx+0x58]
000E 59                       pop cx
000F 3D 0A 00                 cmp ax, 0xa
0012 73 3A                    jae 0x4e
0014 B8 17 00                 mov ax, 0x17
0017 50                       push ax
0018 C4 5E 06                 les bx, [bp+0x6]
001B 26 FF 5F 64              call far word [es:bx+0x64]
001F 59                       pop cx
0020 0B C0                    or ax, ax
0022 75 2A                    jnz 0x4e
0024 B8 A2 00                 mov ax, 0xa2
0027 50                       push ax
0028 B8 A2 00                 mov ax, 0xa2
002B 50                       push ax
002C C4 5E 06                 les bx, [bp+0x6]
002F 26 FF 5F 54              call far word [es:bx+0x54]
0033 59                       pop cx
0034 59                       pop cx
0035 0B C0                    or ax, ax
0037 75 15                    jnz 0x4e
0039 B8 BE 00                 mov ax, 0xbe
003C 50                       push ax
003D B8 BE 00                 mov ax, 0xbe
0040 50                       push ax
0041 C4 5E 06                 les bx, [bp+0x6]
0044 26 FF 5F 54              call far word [es:bx+0x54]
0048 59                       pop cx
0049 59                       pop cx
004A 0B C0                    or ax, ax
004C 74 29                    jz 0x77
004E                          ShowMessage(0C37) = You found a trapdoor on the floor.
005B                          GoMap(00, C2, 02, 03)
0075 EB 27                    jmp 0x9e
0077                          ShowMessage(0C5A) = You fall through a trapdoor.
0084                          GoMap(00, C2, 02, 03)
009E                          RETURN

Functn1F: "TRAPDORH"
0000                          BEGIN
0003 B8 0D 00                 mov ax, 0xd
0006 50                       push ax
0007 C4 5E 06                 les bx, [bp+0x6]
000A 26 FF 5F 58              call far word [es:bx+0x58]
000E 59                       pop cx
000F 3D 0A 00                 cmp ax, 0xa
0012 73 3A                    jae 0x4e
0014 B8 17 00                 mov ax, 0x17
0017 50                       push ax
0018 C4 5E 06                 les bx, [bp+0x6]
001B 26 FF 5F 64              call far word [es:bx+0x64]
001F 59                       pop cx
0020 0B C0                    or ax, ax
0022 75 2A                    jnz 0x4e
0024 B8 A2 00                 mov ax, 0xa2
0027 50                       push ax
0028 B8 A2 00                 mov ax, 0xa2
002B 50                       push ax
002C C4 5E 06                 les bx, [bp+0x6]
002F 26 FF 5F 54              call far word [es:bx+0x54]
0033 59                       pop cx
0034 59                       pop cx
0035 0B C0                    or ax, ax
0037 75 15                    jnz 0x4e
0039 B8 BE 00                 mov ax, 0xbe
003C 50                       push ax
003D B8 BE 00                 mov ax, 0xbe
0040 50                       push ax
0041 C4 5E 06                 les bx, [bp+0x6]
0044 26 FF 5F 54              call far word [es:bx+0x54]
0048 59                       pop cx
0049 59                       pop cx
004A 0B C0                    or ax, ax
004C 74 2A                    jz 0x78
004E                          ShowMessage(0C77) = You found a trapdoor on the floor.
005B                          GoMap(02, C6, 02, 03)
0076 EB 28                    jmp 0xa0
0078                          ShowMessage(0C9A) = You fall through a trapdoor.
0085                          GoMap(02, C6, 02, 03)
00A0                          RETURN

Functn20: "TRAPDORI"
0000                          BEGIN
0003 B8 0D 00                 mov ax, 0xd
0006 50                       push ax
0007 C4 5E 06                 les bx, [bp+0x6]
000A 26 FF 5F 58              call far word [es:bx+0x58]
000E 59                       pop cx
000F 3D 0A 00                 cmp ax, 0xa
0012 73 3A                    jae 0x4e
0014 B8 17 00                 mov ax, 0x17
0017 50                       push ax
0018 C4 5E 06                 les bx, [bp+0x6]
001B 26 FF 5F 64              call far word [es:bx+0x64]
001F 59                       pop cx
0020 0B C0                    or ax, ax
0022 75 2A                    jnz 0x4e
0024 B8 A2 00                 mov ax, 0xa2
0027 50                       push ax
0028 B8 A2 00                 mov ax, 0xa2
002B 50                       push ax
002C C4 5E 06                 les bx, [bp+0x6]
002F 26 FF 5F 54              call far word [es:bx+0x54]
0033 59                       pop cx
0034 59                       pop cx
0035 0B C0                    or ax, ax
0037 75 15                    jnz 0x4e
0039 B8 BE 00                 mov ax, 0xbe
003C 50                       push ax
003D B8 BE 00                 mov ax, 0xbe
0040 50                       push ax
0041 C4 5E 06                 les bx, [bp+0x6]
0044 26 FF 5F 54              call far word [es:bx+0x54]
0048 59                       pop cx
0049 59                       pop cx
004A 0B C0                    or ax, ax
004C 74 29                    jz 0x77
004E                          ShowMessage(0CB7) = You found a trapdoor on the floor.
005B                          GoMap(00, D3, 02, 03)
0075 EB 27                    jmp 0x9e
0077                          ShowMessage(0CDA) = You fall through a trapdoor.
0084                          GoMap(00, D3, 02, 03)
009E                          RETURN

Functn21: "TRAPDORJ"
0000                          BEGIN
0003 B8 0D 00                 mov ax, 0xd
0006 50                       push ax
0007 C4 5E 06                 les bx, [bp+0x6]
000A 26 FF 5F 58              call far word [es:bx+0x58]
000E 59                       pop cx
000F 3D 0A 00                 cmp ax, 0xa
0012 73 3A                    jae 0x4e
0014 B8 17 00                 mov ax, 0x17
0017 50                       push ax
0018 C4 5E 06                 les bx, [bp+0x6]
001B 26 FF 5F 64              call far word [es:bx+0x64]
001F 59                       pop cx
0020 0B C0                    or ax, ax
0022 75 2A                    jnz 0x4e
0024 B8 A2 00                 mov ax, 0xa2
0027 50                       push ax
0028 B8 A2 00                 mov ax, 0xa2
002B 50                       push ax
002C C4 5E 06                 les bx, [bp+0x6]
002F 26 FF 5F 54              call far word [es:bx+0x54]
0033 59                       pop cx
0034 59                       pop cx
0035 0B C0                    or ax, ax
0037 75 15                    jnz 0x4e
0039 B8 BE 00                 mov ax, 0xbe
003C 50                       push ax
003D B8 BE 00                 mov ax, 0xbe
0040 50                       push ax
0041 C4 5E 06                 les bx, [bp+0x6]
0044 26 FF 5F 54              call far word [es:bx+0x54]
0048 59                       pop cx
0049 59                       pop cx
004A 0B C0                    or ax, ax
004C 74 2A                    jz 0x78
004E                          ShowMessage(0CF7) = You found a trapdoor on the floor.
005B                          GoMap(01, D4, 02, 03)
0076 EB 28                    jmp 0xa0
0078                          ShowMessage(0D1A) = You fall through a trapdoor.
0085                          GoMap(01, D4, 02, 03)
00A0                          RETURN

Functn22: "TRAPDORK"
0000                          BEGIN
0003 B8 0D 00                 mov ax, 0xd
0006 50                       push ax
0007 C4 5E 06                 les bx, [bp+0x6]
000A 26 FF 5F 58              call far word [es:bx+0x58]
000E 59                       pop cx
000F 3D 0A 00                 cmp ax, 0xa
0012 73 3A                    jae 0x4e
0014 B8 17 00                 mov ax, 0x17
0017 50                       push ax
0018 C4 5E 06                 les bx, [bp+0x6]
001B 26 FF 5F 64              call far word [es:bx+0x64]
001F 59                       pop cx
0020 0B C0                    or ax, ax
0022 75 2A                    jnz 0x4e
0024 B8 A2 00                 mov ax, 0xa2
0027 50                       push ax
0028 B8 A2 00                 mov ax, 0xa2
002B 50                       push ax
002C C4 5E 06                 les bx, [bp+0x6]
002F 26 FF 5F 54              call far word [es:bx+0x54]
0033 59                       pop cx
0034 59                       pop cx
0035 0B C0                    or ax, ax
0037 75 15                    jnz 0x4e
0039 B8 BE 00                 mov ax, 0xbe
003C 50                       push ax
003D B8 BE 00                 mov ax, 0xbe
0040 50                       push ax
0041 C4 5E 06                 les bx, [bp+0x6]
0044 26 FF 5F 54              call far word [es:bx+0x54]
0048 59                       pop cx
0049 59                       pop cx
004A 0B C0                    or ax, ax
004C 74 2A                    jz 0x78
004E                          ShowMessage(0D37) = You found a trapdoor on the floor.
005B                          GoMap(02, D5, 02, 03)
0076 EB 28                    jmp 0xa0
0078                          ShowMessage(0D5A) = You fall through a trapdoor.
0085                          GoMap(02, D5, 02, 03)
00A0                          RETURN

Functn23: "TRAPDORL"
0000                          BEGIN
0003 B8 0D 00                 mov ax, 0xd
0006 50                       push ax
0007 C4 5E 06                 les bx, [bp+0x6]
000A 26 FF 5F 58              call far word [es:bx+0x58]
000E 59                       pop cx
000F 3D 0A 00                 cmp ax, 0xa
0012 73 3A                    jae 0x4e
0014 B8 17 00                 mov ax, 0x17
0017 50                       push ax
0018 C4 5E 06                 les bx, [bp+0x6]
001B 26 FF 5F 64              call far word [es:bx+0x64]
001F 59                       pop cx
0020 0B C0                    or ax, ax
0022 75 2A                    jnz 0x4e
0024 B8 A2 00                 mov ax, 0xa2
0027 50                       push ax
0028 B8 A2 00                 mov ax, 0xa2
002B 50                       push ax
002C C4 5E 06                 les bx, [bp+0x6]
002F 26 FF 5F 54              call far word [es:bx+0x54]
0033 59                       pop cx
0034 59                       pop cx
0035 0B C0                    or ax, ax
0037 75 15                    jnz 0x4e
0039 B8 BE 00                 mov ax, 0xbe
003C 50                       push ax
003D B8 BE 00                 mov ax, 0xbe
0040 50                       push ax
0041 C4 5E 06                 les bx, [bp+0x6]
0044 26 FF 5F 54              call far word [es:bx+0x54]
0048 59                       pop cx
0049 59                       pop cx
004A 0B C0                    or ax, ax
004C 74 2A                    jz 0x78
004E                          ShowMessage(0D77) = You found a trapdoor on the floor.
005B                          GoMap(01, E0, 02, 03)
0076 EB 28                    jmp 0xa0
0078                          ShowMessage(0D9A) = You fall through a trapdoor.
0085                          GoMap(01, E0, 02, 03)
00A0                          RETURN

Functn24: "TRAPDORM"
0000                          BEGIN
0003 B8 0D 00                 mov ax, 0xd
0006 50                       push ax
0007 C4 5E 06                 les bx, [bp+0x6]
000A 26 FF 5F 58              call far word [es:bx+0x58]
000E 59                       pop cx
000F 3D 0A 00                 cmp ax, 0xa
0012 73 3A                    jae 0x4e
0014 B8 17 00                 mov ax, 0x17
0017 50                       push ax
0018 C4 5E 06                 les bx, [bp+0x6]
001B 26 FF 5F 64              call far word [es:bx+0x64]
001F 59                       pop cx
0020 0B C0                    or ax, ax
0022 75 2A                    jnz 0x4e
0024 B8 A2 00                 mov ax, 0xa2
0027 50                       push ax
0028 B8 A2 00                 mov ax, 0xa2
002B 50                       push ax
002C C4 5E 06                 les bx, [bp+0x6]
002F 26 FF 5F 54              call far word [es:bx+0x54]
0033 59                       pop cx
0034 59                       pop cx
0035 0B C0                    or ax, ax
0037 75 15                    jnz 0x4e
0039 B8 BE 00                 mov ax, 0xbe
003C 50                       push ax
003D B8 BE 00                 mov ax, 0xbe
0040 50                       push ax
0041 C4 5E 06                 les bx, [bp+0x6]
0044 26 FF 5F 54              call far word [es:bx+0x54]
0048 59                       pop cx
0049 59                       pop cx
004A 0B C0                    or ax, ax
004C 74 2A                    jz 0x78
004E                          ShowMessage(0DB7) = You found a trapdoor on the floor.
005B                          GoMap(01, E2, 02, 03)
0076 EB 28                    jmp 0xa0
0078                          ShowMessage(0DDA) = You fall through a trapdoor.
0085                          GoMap(01, E2, 02, 03)
00A0                          RETURN

Functn25: "TRAPDORN"
0000                          BEGIN
0003 B8 0D 00                 mov ax, 0xd
0006 50                       push ax
0007 C4 5E 06                 les bx, [bp+0x6]
000A 26 FF 5F 58              call far word [es:bx+0x58]
000E 59                       pop cx
000F 3D 0A 00                 cmp ax, 0xa
0012 73 3A                    jae 0x4e
0014 B8 17 00                 mov ax, 0x17
0017 50                       push ax
0018 C4 5E 06                 les bx, [bp+0x6]
001B 26 FF 5F 64              call far word [es:bx+0x64]
001F 59                       pop cx
0020 0B C0                    or ax, ax
0022 75 2A                    jnz 0x4e
0024 B8 A2 00                 mov ax, 0xa2
0027 50                       push ax
0028 B8 A2 00                 mov ax, 0xa2
002B 50                       push ax
002C C4 5E 06                 les bx, [bp+0x6]
002F 26 FF 5F 54              call far word [es:bx+0x54]
0033 59                       pop cx
0034 59                       pop cx
0035 0B C0                    or ax, ax
0037 75 15                    jnz 0x4e
0039 B8 BE 00                 mov ax, 0xbe
003C 50                       push ax
003D B8 BE 00                 mov ax, 0xbe
0040 50                       push ax
0041 C4 5E 06                 les bx, [bp+0x6]
0044 26 FF 5F 54              call far word [es:bx+0x54]
0048 59                       pop cx
0049 59                       pop cx
004A 0B C0                    or ax, ax
004C 74 2A                    jz 0x78
004E                          ShowMessage(0DF7) = You found a trapdoor on the floor.
005B                          GoMap(01, E3, 02, 03)
0076 EB 28                    jmp 0xa0
0078                          ShowMessage(0E1A) = You fall through a trapdoor.
0085                          GoMap(01, E3, 02, 03)
00A0                          RETURN

Functn26: "TRAPDORO"
0000                          BEGIN
0003 B8 0D 00                 mov ax, 0xd
0006 50                       push ax
0007 C4 5E 06                 les bx, [bp+0x6]
000A 26 FF 5F 58              call far word [es:bx+0x58]
000E 59                       pop cx
000F 3D 0A 00                 cmp ax, 0xa
0012 73 3A                    jae 0x4e
0014 B8 17 00                 mov ax, 0x17
0017 50                       push ax
0018 C4 5E 06                 les bx, [bp+0x6]
001B 26 FF 5F 64              call far word [es:bx+0x64]
001F 59                       pop cx
0020 0B C0                    or ax, ax
0022 75 2A                    jnz 0x4e
0024 B8 A2 00                 mov ax, 0xa2
0027 50                       push ax
0028 B8 A2 00                 mov ax, 0xa2
002B 50                       push ax
002C C4 5E 06                 les bx, [bp+0x6]
002F 26 FF 5F 54              call far word [es:bx+0x54]
0033 59                       pop cx
0034 59                       pop cx
0035 0B C0                    or ax, ax
0037 75 15                    jnz 0x4e
0039 B8 BE 00                 mov ax, 0xbe
003C 50                       push ax
003D B8 BE 00                 mov ax, 0xbe
0040 50                       push ax
0041 C4 5E 06                 les bx, [bp+0x6]
0044 26 FF 5F 54              call far word [es:bx+0x54]
0048 59                       pop cx
0049 59                       pop cx
004A 0B C0                    or ax, ax
004C 74 2A                    jz 0x78
004E                          ShowMessage(0E37) = You found a trapdoor on the floor.
005B                          GoMap(01, E5, 02, 03)
0076 EB 28                    jmp 0xa0
0078                          ShowMessage(0E5A) = You fall through a trapdoor.
0085                          GoMap(01, E5, 02, 03)
00A0                          RETURN

Functn27: "TRAPDORP"
0000                          BEGIN
0003 B8 0D 00                 mov ax, 0xd
0006 50                       push ax
0007 C4 5E 06                 les bx, [bp+0x6]
000A 26 FF 5F 58              call far word [es:bx+0x58]
000E 59                       pop cx
000F 3D 0A 00                 cmp ax, 0xa
0012 73 3A                    jae 0x4e
0014 B8 17 00                 mov ax, 0x17
0017 50                       push ax
0018 C4 5E 06                 les bx, [bp+0x6]
001B 26 FF 5F 64              call far word [es:bx+0x64]
001F 59                       pop cx
0020 0B C0                    or ax, ax
0022 75 2A                    jnz 0x4e
0024 B8 A2 00                 mov ax, 0xa2
0027 50                       push ax
0028 B8 A2 00                 mov ax, 0xa2
002B 50                       push ax
002C C4 5E 06                 les bx, [bp+0x6]
002F 26 FF 5F 54              call far word [es:bx+0x54]
0033 59                       pop cx
0034 59                       pop cx
0035 0B C0                    or ax, ax
0037 75 15                    jnz 0x4e
0039 B8 BE 00                 mov ax, 0xbe
003C 50                       push ax
003D B8 BE 00                 mov ax, 0xbe
0040 50                       push ax
0041 C4 5E 06                 les bx, [bp+0x6]
0044 26 FF 5F 54              call far word [es:bx+0x54]
0048 59                       pop cx
0049 59                       pop cx
004A 0B C0                    or ax, ax
004C 74 2A                    jz 0x78
004E                          ShowMessage(0E77) = You found a trapdoor on the floor.
005B                          GoMap(01, E6, 02, 03)
0076 EB 28                    jmp 0xa0
0078                          ShowMessage(0E9A) = You fall through a trapdoor.
0085                          GoMap(01, E6, 02, 03)
00A0                          RETURN

Functn28: "TRAPDORQ"
0000                          BEGIN
0003 B8 0D 00                 mov ax, 0xd
0006 50                       push ax
0007 C4 5E 06                 les bx, [bp+0x6]
000A 26 FF 5F 58              call far word [es:bx+0x58]
000E 59                       pop cx
000F 3D 0A 00                 cmp ax, 0xa
0012 73 3A                    jae 0x4e
0014 B8 17 00                 mov ax, 0x17
0017 50                       push ax
0018 C4 5E 06                 les bx, [bp+0x6]
001B 26 FF 5F 64              call far word [es:bx+0x64]
001F 59                       pop cx
0020 0B C0                    or ax, ax
0022 75 2A                    jnz 0x4e
0024 B8 A2 00                 mov ax, 0xa2
0027 50                       push ax
0028 B8 A2 00                 mov ax, 0xa2
002B 50                       push ax
002C C4 5E 06                 les bx, [bp+0x6]
002F 26 FF 5F 54              call far word [es:bx+0x54]
0033 59                       pop cx
0034 59                       pop cx
0035 0B C0                    or ax, ax
0037 75 15                    jnz 0x4e
0039 B8 BE 00                 mov ax, 0xbe
003C 50                       push ax
003D B8 BE 00                 mov ax, 0xbe
0040 50                       push ax
0041 C4 5E 06                 les bx, [bp+0x6]
0044 26 FF 5F 54              call far word [es:bx+0x54]
0048 59                       pop cx
0049 59                       pop cx
004A 0B C0                    or ax, ax
004C 74 2A                    jz 0x78
004E                          ShowMessage(0EB7) = You found a trapdoor on the floor.
005B                          GoMap(01, E8, 02, 03)
0076 EB 28                    jmp 0xa0
0078                          ShowMessage(0EDA) = You fall through a trapdoor.
0085                          GoMap(01, E8, 02, 03)
00A0                          RETURN

Functn29: "TOCORRB"
0000                          BEGIN
0003                          GoMap(03, F1, 02, 02)
001E                          RETURN

Functn2A: "GATEMESS"
0000                          BEGIN
0003                          ShowMessage(0EF7) = The gateway leads to THE PALACE CORRIDOR.
0010                          RETURN

Functn2B: "PASSCOLM"
0000                          BEGIN
0003                          ShowMessage(0F21) = As you step forward, the column slides away.
0010 B8 01 00                 mov ax, 0x1
0013 50                       push ax
0014 B8 F7 00                 mov ax, 0xf7
0017 50                       push ax
0018 C4 5E 06                 les bx, [bp+0x6]
001B 26 FF 5F 34              call far word [es:bx+0x34]
001F 59                       pop cx
0020 59                       pop cx
0021                          RETURN

Functn2C: ""
0000                          BEGIN
0003                          ShowMessage(0F4E) = You bump into the pillar.
0010                          RETURN

Functn2D: "NPCCHATA"
0000                          BEGIN
0003                          ShowMessage(0F68) = You encounter an Elf Ranger.
0010                          ShowPortrait(001F)
001D                          UnknownFunction(000F) [es:bx+0xec]
002A 3D 0D 00                 cmp ax, 0xd
002D 77 0F                    ja 0x3e
002F                          ShowMessage(0F85) = The ghost of King Cleowyn appears at his throne on special occasions. Once the king appears, he will not appear again until all mortals have left the Palace.
003C EB 0D                    jmp 0x4b
003E                          ShowMessage(1023) = The Elf Ranger ignores you as he wanders the room, rapping on the walls.
004B                          RETURN

Functn2E: "NPCCHATB"
0000                          BEGIN
0003                          ShowMessage(106C) = You encounter a Gremlin Thief.
0010                          ShowPortrait(0026)
001D                          UnknownFunction(000F) [es:bx+0xec]
002A 3D 0C 00                 cmp ax, 0xc
002D 77 0F                    ja 0x3e
002F                          ShowMessage(108B) = The pit is pitiless. Do not go near it. The traps are dangerous, but they may aid you.
003C EB 0D                    jmp 0x4b
003E                          ShowMessage(10E2) = The Gremlin Thief runs away when you approach him.
004B                          RETURN

Functn2F: "NPCCHATC"
0000                          BEGIN
0003                          ShowMessage(1115) = You encounter a Dwarf Knight.
0010                          ShowPortrait(001C)
001D                          UnknownFunction(000F) [es:bx+0xec]
002A 3D 0A 00                 cmp ax, 0xa
002D 77 0F                    ja 0x3e
002F                          ShowMessage(1133) = Obey the king. Return his cherished possessions and you will be blessed. Keep them and you will die.
003C EB 0D                    jmp 0x4b
003E                          ShowMessage(1198) = The Dwarf Knight snubs you and wanders off in search of adventure.
004B                          RETURN

Functn30: "KINGMSG"
0000                          BEGIN
0003                          ax = HasItem(F8) ? 1 : 0 [es:bx+0x50]
0011 75 03                    jnz 0x16
0013 E9 B2 00                 jmp 0xc8
0016                          ShowPortrait(000A)
0023                          ShowMessage(11DB) = Very good, heroes. You have proven your strength in battle. Know that I am the spirit of King Cleowyn, called the Cruel. I set you a quest.
0030                          ShowMessage(1267) = The imps who serve Arnakkian have stolen my Crown, Robe, and Scepter. I want them back. Return them to their proper places in my mausoleum, and I shall reward you.
003D                          ShowMessage(130B) = If you keep my possessions, I shall curse you! I give you gold to dull your greed.
004A                          ShowMessage(135E) = I earned Arnakkian's enmity because I tried to wrest his secrets from the buried castle
0057                          ShowMessage(13B6) = I almost succeeded, but the spirit of the wizard tracked me down and killed me.
0064                          ShowMessage(1406) = I would be grateful if you can find my body and place it in my mausoleum. Then, perhaps, my spirit can rest in peace.
0071                          ShowMessage(147C) = But first you must return my possessions to me. Then I shall let you continue your journeys.
007E                          ShowMessage(14D9) = Take my ring as seal of your promise. Go, heroes! Find the tapestry and read. Start your quest.
008B                          ax = CheckState(02, 8F) [es:bx+0x4]
009C 0B C0                    or ax, ax
009E 75 26                    jnz 0xc6
00A0 B8 01 00                 mov ax, 0x1
00A3 50                       push ax
00A4 B8 8F 00                 mov ax, 0x8f
00A7 50                       push ax
00A8 B8 02 00                 mov ax, 0x2
00AB 50                       push ax
00AC C4 5E 06                 les bx, [bp+0x6]
00AF 26 FF 1F                 call far word [es:bx]
00B2 83 C4 06                 add sp, 0x6
00B5 33 C0                    xor ax, ax
00B7 BA A8 61                 mov dx, 0x61a8
00BA 50                       push ax
00BB 52                       push dx
00BC C4 5E 06                 les bx, [bp+0x6]
00BF 26 FF 9F 98 00           call far word [es:bx+0x98]
00C4 59                       pop cx
00C5 59                       pop cx
00C6 EB 0D                    jmp 0xd5
00C8                          ShowMessage(1539) = Echoes of ghostly laughter mock you.
00D5                          RETURN

03FC: As you step forward, the column slides away.
0429: As you step forward, the column slides away.
0456: Runes appear on the tapestry...
0476: Imps have hidden the Crown, Robe and Scepter. Only a master of the runes may find them. Two-faced Y is at the center of the quest. From Y, open O and E and I. When a rune key is used correctly, it will disappear.
054B: You see an ornate tapestry. The middle of the tapestry is blank.
058C: King Cleowyn's angry spirit appears.
05B1: He tears the Key to the Palace away from you as he and his courtiers attack.
05FE: King Cleowyn and his dead courtiers appear to challenge you.
063B: You fall into a deep, deep pit.
065B: Your body provides a soft landing pad for the rest of your party.
069D: You feel the tickle of cobwebs on your neck.
06CA: Spiders are using a spear in the middle of the floor as a support for their webs.
071C: You see a weapon on the floor and step forward. Banshees sense your presence and gather to attack.
077F: Nightmares emerge from the shadows.
07A3: A group of Nightmares claw at an axe on the floor.
07D6: You stumble upon some Zombies, eating the remains of a former adventurer.
0820: The shuffle of heavy feet put you on your guard. One of the things kicks a shield out of its way.
0882: Ghosts rise from the floor to haunt you.
08AB: Ghosts are gathered around a jacket on the floor. They seem to be pondering its purpose.
0904: Skeletons of King Cleowyn's elite palace guard advance on you.
0943: The leader of the dead palace guards that surrounds you wears rusty chainmail.
0992: There are runes on the wall...
09B1: What you see is not always what is real.
09DA: You successfully picked the locked door.
0A03: The door is locked.
0A17: You manage to open the door by brute force.
0A43: You are not strong enough to force the door open.
0A75: You picked the lock of the door successfully.
0AA3: The door is locked.
0AB7: You found a trapdoor on the floor.
0ADA: You fall through a trapdoor.
0AF7: You found a trapdoor on the floor.
0B1A: You fall through a trapdoor.
0B37: You found a trapdoor on the floor.
0B5A: You fall through a trapdoor.
0B77: You found a trapdoor on the floor.
0B9A: You fall through a trapdoor.
0BB7: You found a trapdoor on the floor.
0BDA: You fall through a trapdoor.
0BF7: You found a trapdoor on the floor.
0C1A: You fall through a trapdoor.
0C37: You found a trapdoor on the floor.
0C5A: You fall through a trapdoor.
0C77: You found a trapdoor on the floor.
0C9A: You fall through a trapdoor.
0CB7: You found a trapdoor on the floor.
0CDA: You fall through a trapdoor.
0CF7: You found a trapdoor on the floor.
0D1A: You fall through a trapdoor.
0D37: You found a trapdoor on the floor.
0D5A: You fall through a trapdoor.
0D77: You found a trapdoor on the floor.
0D9A: You fall through a trapdoor.
0DB7: You found a trapdoor on the floor.
0DDA: You fall through a trapdoor.
0DF7: You found a trapdoor on the floor.
0E1A: You fall through a trapdoor.
0E37: You found a trapdoor on the floor.
0E5A: You fall through a trapdoor.
0E77: You found a trapdoor on the floor.
0E9A: You fall through a trapdoor.
0EB7: You found a trapdoor on the floor.
0EDA: You fall through a trapdoor.
0EF7: The gateway leads to THE PALACE CORRIDOR.
0F21: As you step forward, the column slides away.
0F4E: You bump into the pillar.
0F68: You encounter an Elf Ranger.
0F85: The ghost of King Cleowyn appears at his throne on special occasions. Once the king appears, he will not appear again until all mortals have left the Palace.
1023: The Elf Ranger ignores you as he wanders the room, rapping on the walls.
106C: You encounter a Gremlin Thief.
108B: The pit is pitiless. Do not go near it. The traps are dangerous, but they may aid you.
10E2: The Gremlin Thief runs away when you approach him.
1115: You encounter a Dwarf Knight.
1133: Obey the king. Return his cherished possessions and you will be blessed. Keep them and you will die.
1198: The Dwarf Knight snubs you and wanders off in search of adventure.
11DB: Very good, heroes. You have proven your strength in battle. Know that I am the spirit of King Cleowyn, called the Cruel. I set you a quest.
1267: The imps who serve Arnakkian have stolen my Crown, Robe, and Scepter. I want them back. Return them to their proper places in my mausoleum, and I shall reward you.
130B: If you keep my possessions, I shall curse you! I give you gold to dull your greed.
135E: I earned Arnakkian's enmity because I tried to wrest his secrets from the buried castle
13B6: I almost succeeded, but the spirit of the wizard tracked me down and killed me.
1406: I would be grateful if you can find my body and place it in my mausoleum. Then, perhaps, my spirit can rest in peace.
147C: But first you must return my possessions to me. Then I shall let you continue your journeys.
14D9: Take my ring as seal of your promise. Go, heroes! Find the tapestry and read. Start your quest.
1539: Echoes of ghostly laughter mock you.
