Functn01: "STRSTELE"
0000                          BEGIN
0003                          GoMap(01, 1F, 02, 02)
001E                          RETURN

Functn02: "TOCORDOR"
0000                          BEGIN
0003                          GoMap(02, 10, 03, 03)
001E                          RETURN

Functn03: "STRSTELE"
0000                          BEGIN
0003                          GoMap(02, D3, 03, 02)
001E                          RETURN

Functn04: "STRSTELE"
0000                          BEGIN
0003                          GoMap(00, C6, 04, 02)
001D                          RETURN

Functn05: "STRSTELE"
0000                          BEGIN
0003                          GoMap(01, DC, 05, 02)
001E                          RETURN

Functn06: "NDORSWCH"
0000                          BEGIN
0003                          ShowMessage(03FC) = You see a switch on the wall and throw it. You hear the sound of locks opening.
0010 B8 01 00                 mov ax, 0x1
0013 50                       push ax
0014 B8 01 00                 mov ax, 0x1
0017 50                       push ax
0018 B8 01 00                 mov ax, 0x1
001B 50                       push ax
001C C4 5E 06                 les bx, [bp+0x6]
001F 26 FF 1F                 call far word [es:bx]
0022 83 C4 06                 add sp, 0x6
0025 33 C0                    xor ax, ax
0027 50                       push ax
0028 B8 02 00                 mov ax, 0x2
002B 50                       push ax
002C B8 01 00                 mov ax, 0x1
002F 50                       push ax
0030 C4 5E 06                 les bx, [bp+0x6]
0033 26 FF 1F                 call far word [es:bx]
0036 83 C4 06                 add sp, 0x6
0039 33 C0                    xor ax, ax
003B 50                       push ax
003C B8 03 00                 mov ax, 0x3
003F 50                       push ax
0040 B8 01 00                 mov ax, 0x1
0043 50                       push ax
0044 C4 5E 06                 les bx, [bp+0x6]
0047 26 FF 1F                 call far word [es:bx]
004A 83 C4 06                 add sp, 0x6
004D 33 C0                    xor ax, ax
004F 50                       push ax
0050 B8 04 00                 mov ax, 0x4
0053 50                       push ax
0054 B8 01 00                 mov ax, 0x1
0057 50                       push ax
0058 C4 5E 06                 les bx, [bp+0x6]
005B 26 FF 1F                 call far word [es:bx]
005E 83 C4 06                 add sp, 0x6
0061 B8 01 00                 mov ax, 0x1
0064 50                       push ax
0065 B8 01 00                 mov ax, 0x1
0068 50                       push ax
0069 B8 77 00                 mov ax, 0x77
006C 50                       push ax
006D C4 5E 06                 les bx, [bp+0x6]
0070 26 FF 5F 2C              call far word [es:bx+0x2c]
0074 83 C4 06                 add sp, 0x6
0077 B8 01 00                 mov ax, 0x1
007A 50                       push ax
007B B8 01 00                 mov ax, 0x1
007E 50                       push ax
007F B8 77 00                 mov ax, 0x77
0082 50                       push ax
0083 C4 5E 06                 les bx, [bp+0x6]
0086 26 FF 5F 28              call far word [es:bx+0x28]
008A 83 C4 06                 add sp, 0x6
008D                          RETURN

Functn07: "EDORSWCH"
0000                          BEGIN
0003                          ShowMessage(044C) = You see a switch on the wall and throw it. You hear the sound of locks opening.
0010 33 C0                    xor ax, ax
0012 50                       push ax
0013 B8 01 00                 mov ax, 0x1
0016 50                       push ax
0017 B8 01 00                 mov ax, 0x1
001A 50                       push ax
001B C4 5E 06                 les bx, [bp+0x6]
001E 26 FF 1F                 call far word [es:bx]
0021 83 C4 06                 add sp, 0x6
0024 33 C0                    xor ax, ax
0026 50                       push ax
0027 B8 02 00                 mov ax, 0x2
002A 50                       push ax
002B B8 01 00                 mov ax, 0x1
002E 50                       push ax
002F C4 5E 06                 les bx, [bp+0x6]
0032 26 FF 1F                 call far word [es:bx]
0035 83 C4 06                 add sp, 0x6
0038 B8 01 00                 mov ax, 0x1
003B 50                       push ax
003C B8 03 00                 mov ax, 0x3
003F 50                       push ax
0040 B8 01 00                 mov ax, 0x1
0043 50                       push ax
0044 C4 5E 06                 les bx, [bp+0x6]
0047 26 FF 1F                 call far word [es:bx]
004A 83 C4 06                 add sp, 0x6
004D 33 C0                    xor ax, ax
004F 50                       push ax
0050 B8 04 00                 mov ax, 0x4
0053 50                       push ax
0054 B8 01 00                 mov ax, 0x1
0057 50                       push ax
0058 C4 5E 06                 les bx, [bp+0x6]
005B 26 FF 1F                 call far word [es:bx]
005E 83 C4 06                 add sp, 0x6
0061 B8 01 00                 mov ax, 0x1
0064 50                       push ax
0065 33 C0                    xor ax, ax
0067 50                       push ax
0068 B8 77 00                 mov ax, 0x77
006B 50                       push ax
006C C4 5E 06                 les bx, [bp+0x6]
006F 26 FF 5F 2C              call far word [es:bx+0x2c]
0073 83 C4 06                 add sp, 0x6
0076 B8 01 00                 mov ax, 0x1
0079 50                       push ax
007A 33 C0                    xor ax, ax
007C 50                       push ax
007D B8 77 00                 mov ax, 0x77
0080 50                       push ax
0081 C4 5E 06                 les bx, [bp+0x6]
0084 26 FF 5F 28              call far word [es:bx+0x28]
0088 83 C4 06                 add sp, 0x6
008B                          RETURN

Functn08: "EDORSWCH"
0000                          BEGIN
0003                          ShowMessage(049C) = You see a switch on the wall and throw it. You hear the sound of locks opening.
0010 33 C0                    xor ax, ax
0012 50                       push ax
0013 B8 01 00                 mov ax, 0x1
0016 50                       push ax
0017 B8 01 00                 mov ax, 0x1
001A 50                       push ax
001B C4 5E 06                 les bx, [bp+0x6]
001E 26 FF 1F                 call far word [es:bx]
0021 83 C4 06                 add sp, 0x6
0024 B8 01 00                 mov ax, 0x1
0027 50                       push ax
0028 B8 02 00                 mov ax, 0x2
002B 50                       push ax
002C B8 01 00                 mov ax, 0x1
002F 50                       push ax
0030 C4 5E 06                 les bx, [bp+0x6]
0033 26 FF 1F                 call far word [es:bx]
0036 83 C4 06                 add sp, 0x6
0039 33 C0                    xor ax, ax
003B 50                       push ax
003C B8 03 00                 mov ax, 0x3
003F 50                       push ax
0040 B8 01 00                 mov ax, 0x1
0043 50                       push ax
0044 C4 5E 06                 les bx, [bp+0x6]
0047 26 FF 1F                 call far word [es:bx]
004A 83 C4 06                 add sp, 0x6
004D 33 C0                    xor ax, ax
004F 50                       push ax
0050 B8 04 00                 mov ax, 0x4
0053 50                       push ax
0054 B8 01 00                 mov ax, 0x1
0057 50                       push ax
0058 C4 5E 06                 les bx, [bp+0x6]
005B 26 FF 1F                 call far word [es:bx]
005E 83 C4 06                 add sp, 0x6
0061 B8 01 00                 mov ax, 0x1
0064 50                       push ax
0065 B8 03 00                 mov ax, 0x3
0068 50                       push ax
0069 B8 77 00                 mov ax, 0x77
006C 50                       push ax
006D C4 5E 06                 les bx, [bp+0x6]
0070 26 FF 5F 2C              call far word [es:bx+0x2c]
0074 83 C4 06                 add sp, 0x6
0077 B8 01 00                 mov ax, 0x1
007A 50                       push ax
007B B8 03 00                 mov ax, 0x3
007E 50                       push ax
007F B8 77 00                 mov ax, 0x77
0082 50                       push ax
0083 C4 5E 06                 les bx, [bp+0x6]
0086 26 FF 5F 28              call far word [es:bx+0x28]
008A 83 C4 06                 add sp, 0x6
008D                          RETURN

Functn09: "WDORSWCH"
0000                          BEGIN
0003                          ShowMessage(04EC) = You see a switch on the wall and throw it. You hear the sound of locks opening.
0010 33 C0                    xor ax, ax
0012 50                       push ax
0013 B8 01 00                 mov ax, 0x1
0016 50                       push ax
0017 B8 01 00                 mov ax, 0x1
001A 50                       push ax
001B C4 5E 06                 les bx, [bp+0x6]
001E 26 FF 1F                 call far word [es:bx]
0021 83 C4 06                 add sp, 0x6
0024 33 C0                    xor ax, ax
0026 50                       push ax
0027 B8 02 00                 mov ax, 0x2
002A 50                       push ax
002B B8 01 00                 mov ax, 0x1
002E 50                       push ax
002F C4 5E 06                 les bx, [bp+0x6]
0032 26 FF 1F                 call far word [es:bx]
0035 83 C4 06                 add sp, 0x6
0038 33 C0                    xor ax, ax
003A 50                       push ax
003B B8 03 00                 mov ax, 0x3
003E 50                       push ax
003F B8 01 00                 mov ax, 0x1
0042 50                       push ax
0043 C4 5E 06                 les bx, [bp+0x6]
0046 26 FF 1F                 call far word [es:bx]
0049 83 C4 06                 add sp, 0x6
004C B8 01 00                 mov ax, 0x1
004F 50                       push ax
0050 B8 04 00                 mov ax, 0x4
0053 50                       push ax
0054 B8 01 00                 mov ax, 0x1
0057 50                       push ax
0058 C4 5E 06                 les bx, [bp+0x6]
005B 26 FF 1F                 call far word [es:bx]
005E 83 C4 06                 add sp, 0x6
0061 B8 01 00                 mov ax, 0x1
0064 50                       push ax
0065 B8 02 00                 mov ax, 0x2
0068 50                       push ax
0069 B8 77 00                 mov ax, 0x77
006C 50                       push ax
006D C4 5E 06                 les bx, [bp+0x6]
0070 26 FF 5F 2C              call far word [es:bx+0x2c]
0074 83 C4 06                 add sp, 0x6
0077 B8 01 00                 mov ax, 0x1
007A 50                       push ax
007B B8 02 00                 mov ax, 0x2
007E 50                       push ax
007F B8 77 00                 mov ax, 0x77
0082 50                       push ax
0083 C4 5E 06                 les bx, [bp+0x6]
0086 26 FF 5F 28              call far word [es:bx+0x28]
008A 83 C4 06                 add sp, 0x6
008D                          RETURN

Functn0A: "NSWCHDOR"
0000                          BEGIN
0003                          ax = CheckState(01, 01) [es:bx+0xf0]
0014 3D 01 00                 cmp ax, 0x1
0017 75 43                    jnz 0x5c
0019                          ShowMessage(053C) = The door is unlocked.
0026 B8 03 00                 mov ax, 0x3
0029 50                       push ax
002A C4 5E 06                 les bx, [bp+0x6]
002D 26 FF 5F 20              call far word [es:bx+0x20]
0031 50                       push ax
0032 B8 01 00                 mov ax, 0x1
0035 50                       push ax
0036 C4 5E 06                 les bx, [bp+0x6]
0039 26 FF 5F 30              call far word [es:bx+0x30]
003D 83 C4 06                 add sp, 0x6
0040 B8 01 00                 mov ax, 0x1
0043 50                       push ax
0044 B8 03 00                 mov ax, 0x3
0047 50                       push ax
0048 C4 5E 06                 les bx, [bp+0x6]
004B 26 FF 5F 20              call far word [es:bx+0x20]
004F 50                       push ax
0050 C4 5E 06                 les bx, [bp+0x6]
0053 26 FF 5F 2C              call far word [es:bx+0x2c]
0057 83 C4 06                 add sp, 0x6
005A EB 26                    jmp 0x82
005C                          ShowMessage(0552) = The door is sealed shut. There is no lock on the outside.
0069 33 C0                    xor ax, ax
006B 50                       push ax
006C B8 03 00                 mov ax, 0x3
006F 50                       push ax
0070 C4 5E 06                 les bx, [bp+0x6]
0073 26 FF 5F 20              call far word [es:bx+0x20]
0077 50                       push ax
0078 C4 5E 06                 les bx, [bp+0x6]
007B 26 FF 5F 2C              call far word [es:bx+0x2c]
007F 83 C4 06                 add sp, 0x6
0082                          RETURN

Functn0B: "ESWCHDOR"
0000                          BEGIN
0003                          ax = CheckState(01, 03) [es:bx+0xf0]
0014 3D 01 00                 cmp ax, 0x1
0017 75 43                    jnz 0x5c
0019                          ShowMessage(058C) = The door is unlocked.
0026 B8 02 00                 mov ax, 0x2
0029 50                       push ax
002A C4 5E 06                 les bx, [bp+0x6]
002D 26 FF 5F 20              call far word [es:bx+0x20]
0031 50                       push ax
0032 B8 01 00                 mov ax, 0x1
0035 50                       push ax
0036 C4 5E 06                 les bx, [bp+0x6]
0039 26 FF 5F 30              call far word [es:bx+0x30]
003D 83 C4 06                 add sp, 0x6
0040 B8 01 00                 mov ax, 0x1
0043 50                       push ax
0044 B8 02 00                 mov ax, 0x2
0047 50                       push ax
0048 C4 5E 06                 les bx, [bp+0x6]
004B 26 FF 5F 20              call far word [es:bx+0x20]
004F 50                       push ax
0050 C4 5E 06                 les bx, [bp+0x6]
0053 26 FF 5F 2C              call far word [es:bx+0x2c]
0057 83 C4 06                 add sp, 0x6
005A EB 26                    jmp 0x82
005C                          ShowMessage(05A2) = The door is sealed shut. There is no lock on the outside.
0069 33 C0                    xor ax, ax
006B 50                       push ax
006C B8 02 00                 mov ax, 0x2
006F 50                       push ax
0070 C4 5E 06                 les bx, [bp+0x6]
0073 26 FF 5F 20              call far word [es:bx+0x20]
0077 50                       push ax
0078 C4 5E 06                 les bx, [bp+0x6]
007B 26 FF 5F 2C              call far word [es:bx+0x2c]
007F 83 C4 06                 add sp, 0x6
0082                          RETURN

Functn0C: "SSWCHDOR"
0000                          BEGIN
0003                          ax = CheckState(01, 02) [es:bx+0xf0]
0014 3D 01 00                 cmp ax, 0x1
0017 75 43                    jnz 0x5c
0019                          ShowMessage(05DC) = The door is unlocked.
0026 B8 01 00                 mov ax, 0x1
0029 50                       push ax
002A C4 5E 06                 les bx, [bp+0x6]
002D 26 FF 5F 20              call far word [es:bx+0x20]
0031 50                       push ax
0032 B8 01 00                 mov ax, 0x1
0035 50                       push ax
0036 C4 5E 06                 les bx, [bp+0x6]
0039 26 FF 5F 30              call far word [es:bx+0x30]
003D 83 C4 06                 add sp, 0x6
0040 B8 01 00                 mov ax, 0x1
0043 50                       push ax
0044 B8 01 00                 mov ax, 0x1
0047 50                       push ax
0048 C4 5E 06                 les bx, [bp+0x6]
004B 26 FF 5F 20              call far word [es:bx+0x20]
004F 50                       push ax
0050 C4 5E 06                 les bx, [bp+0x6]
0053 26 FF 5F 2C              call far word [es:bx+0x2c]
0057 83 C4 06                 add sp, 0x6
005A EB 26                    jmp 0x82
005C                          ShowMessage(05F2) = The door is sealed shut. There is no lock on the outside.
0069 33 C0                    xor ax, ax
006B 50                       push ax
006C B8 01 00                 mov ax, 0x1
006F 50                       push ax
0070 C4 5E 06                 les bx, [bp+0x6]
0073 26 FF 5F 20              call far word [es:bx+0x20]
0077 50                       push ax
0078 C4 5E 06                 les bx, [bp+0x6]
007B 26 FF 5F 2C              call far word [es:bx+0x2c]
007F 83 C4 06                 add sp, 0x6
0082                          RETURN

Functn0D: "WSWCHDOR"
0000                          BEGIN
0003                          ax = CheckState(01, 04) [es:bx+0xf0]
0014 3D 01 00                 cmp ax, 0x1
0017 75 41                    jnz 0x5a
0019                          ShowMessage(062C) = The door is unlocked.
0026 33 C0                    xor ax, ax
0028 50                       push ax
0029 C4 5E 06                 les bx, [bp+0x6]
002C 26 FF 5F 20              call far word [es:bx+0x20]
0030 50                       push ax
0031 B8 01 00                 mov ax, 0x1
0034 50                       push ax
0035 C4 5E 06                 les bx, [bp+0x6]
0038 26 FF 5F 30              call far word [es:bx+0x30]
003C 83 C4 06                 add sp, 0x6
003F B8 01 00                 mov ax, 0x1
0042 50                       push ax
0043 33 C0                    xor ax, ax
0045 50                       push ax
0046 C4 5E 06                 les bx, [bp+0x6]
0049 26 FF 5F 20              call far word [es:bx+0x20]
004D 50                       push ax
004E C4 5E 06                 les bx, [bp+0x6]
0051 26 FF 5F 2C              call far word [es:bx+0x2c]
0055 83 C4 06                 add sp, 0x6
0058 EB 25                    jmp 0x7f
005A                          ShowMessage(0642) = The door is sealed shut. There is no lock on the outside.
0067 33 C0                    xor ax, ax
0069 50                       push ax
006A 33 C0                    xor ax, ax
006C 50                       push ax
006D C4 5E 06                 les bx, [bp+0x6]
0070 26 FF 5F 20              call far word [es:bx+0x20]
0074 50                       push ax
0075 C4 5E 06                 les bx, [bp+0x6]
0078 26 FF 5F 2C              call far word [es:bx+0x2c]
007C 83 C4 06                 add sp, 0x6
007F                          RETURN

Functn0E: "ALLSWDOR"
0000                          BEGIN
0003                          ax = HasItem(DA) ? 1 : 0 [es:bx+0x50]
0011 75 20                    jnz 0x33
0013                          ax = HasItem(DB) ? 1 : 0 [es:bx+0x50]
0021 75 10                    jnz 0x33
0023                          ax = HasItem(DC) ? 1 : 0 [es:bx+0x50]
0031 74 43                    jz 0x76
0033                          ShowMessage(067C) = A door appears in the south wall.
0040 B8 01 00                 mov ax, 0x1
0043 50                       push ax
0044 C4 5E 06                 les bx, [bp+0x6]
0047 26 FF 5F 20              call far word [es:bx+0x20]
004B 50                       push ax
004C B8 01 00                 mov ax, 0x1
004F 50                       push ax
0050 C4 5E 06                 les bx, [bp+0x6]
0053 26 FF 5F 30              call far word [es:bx+0x30]
0057 83 C4 06                 add sp, 0x6
005A B8 01 00                 mov ax, 0x1
005D 50                       push ax
005E B8 01 00                 mov ax, 0x1
0061 50                       push ax
0062 C4 5E 06                 les bx, [bp+0x6]
0065 26 FF 5F 20              call far word [es:bx+0x20]
0069 50                       push ax
006A C4 5E 06                 les bx, [bp+0x6]
006D 26 FF 5F 2C              call far word [es:bx+0x2c]
0071 83 C4 06                 add sp, 0x6
0074 EB 19                    jmp 0x8f
0076 33 C0                    xor ax, ax
0078 50                       push ax
0079 B8 01 00                 mov ax, 0x1
007C 50                       push ax
007D C4 5E 06                 les bx, [bp+0x6]
0080 26 FF 5F 20              call far word [es:bx+0x20]
0084 50                       push ax
0085 C4 5E 06                 les bx, [bp+0x6]
0088 26 FF 5F 2C              call far word [es:bx+0x2c]
008C 83 C4 06                 add sp, 0x6
008F                          RETURN

Functn0F: "WKEYENC"
0000                          BEGIN
0003                          ax = HasItem(DA) ? 1 : 0 [es:bx+0x50]
0011 74 2E                    jz 0x41
0013 B8 E8 03                 mov ax, 0x3e8
0016 50                       push ax
0017 33 C0                    xor ax, ax
0019 50                       push ax
001A 33 C0                    xor ax, ax
001C 50                       push ax
001D 33 C0                    xor ax, ax
001F 50                       push ax
0020 33 C0                    xor ax, ax
0022 50                       push ax
0023 B8 BE 00                 mov ax, 0xbe
0026 50                       push ax
0027 C4 5E 06                 les bx, [bp+0x6]
002A 26 FF 9F D8 00           call far word [es:bx+0xd8]
002F 83 C4 0C                 add sp, 0xc
0032                          ShowMessage(069E) = Monsters attack you.
003F EB 2D                    jmp 0x6e
0041 B8 E8 03                 mov ax, 0x3e8
0044 50                       push ax
0045 33 C0                    xor ax, ax
0047 50                       push ax
0048 33 C0                    xor ax, ax
004A 50                       push ax
004B 33 C0                    xor ax, ax
004D 50                       push ax
004E B8 CF 00                 mov ax, 0xcf
0051 50                       push ax
0052 B8 DA 00                 mov ax, 0xda
0055 50                       push ax
0056 C4 5E 06                 les bx, [bp+0x6]
0059 26 FF 9F D8 00           call far word [es:bx+0xd8]
005E 83 C4 0C                 add sp, 0xc
0061                          ShowMessage(06B3) = A key dangles from a spider's mandible.
006E C4 5E 06                 les bx, [bp+0x6]
0071 26 FF 9F F0 00           call far word [es:bx+0xf0]
0076 3D 01 00                 cmp ax, 0x1
0079 74 0D                    jz 0x88
007B C4 5E 06                 les bx, [bp+0x6]
007E 26 FF 9F F0 00           call far word [es:bx+0xf0]
0083 3D 02 00                 cmp ax, 0x2
0086 75 4A                    jnz 0xd2
0088 B8 1C 00                 mov ax, 0x1c
008B 50                       push ax
008C B8 01 00                 mov ax, 0x1
008F 50                       push ax
0090 C4 5E 06                 les bx, [bp+0x6]
0093 26 FF 9F D4 00           call far word [es:bx+0xd4]
0098 59                       pop cx
0099 59                       pop cx
009A B8 1C 00                 mov ax, 0x1c
009D 50                       push ax
009E B8 02 00                 mov ax, 0x2
00A1 50                       push ax
00A2 C4 5E 06                 les bx, [bp+0x6]
00A5 26 FF 9F D4 00           call far word [es:bx+0xd4]
00AA 59                       pop cx
00AB 59                       pop cx
00AC B8 19 00                 mov ax, 0x19
00AF 50                       push ax
00B0 B8 03 00                 mov ax, 0x3
00B3 50                       push ax
00B4 C4 5E 06                 les bx, [bp+0x6]
00B7 26 FF 9F D4 00           call far word [es:bx+0xd4]
00BC 59                       pop cx
00BD 59                       pop cx
00BE B8 19 00                 mov ax, 0x19
00C1 50                       push ax
00C2 B8 04 00                 mov ax, 0x4
00C5 50                       push ax
00C6 C4 5E 06                 les bx, [bp+0x6]
00C9 26 FF 9F D4 00           call far word [es:bx+0xd4]
00CE 59                       pop cx
00CF 59                       pop cx
00D0 EB 6C                    jmp 0x13e
00D2 B8 1A 00                 mov ax, 0x1a
00D5 50                       push ax
00D6 B8 01 00                 mov ax, 0x1
00D9 50                       push ax
00DA C4 5E 06                 les bx, [bp+0x6]
00DD 26 FF 9F D4 00           call far word [es:bx+0xd4]
00E2 59                       pop cx
00E3 59                       pop cx
00E4 B8 1A 00                 mov ax, 0x1a
00E7 50                       push ax
00E8 B8 02 00                 mov ax, 0x2
00EB 50                       push ax
00EC C4 5E 06                 les bx, [bp+0x6]
00EF 26 FF 9F D4 00           call far word [es:bx+0xd4]
00F4 59                       pop cx
00F5 59                       pop cx
00F6 B8 1C 00                 mov ax, 0x1c
00F9 50                       push ax
00FA B8 03 00                 mov ax, 0x3
00FD 50                       push ax
00FE C4 5E 06                 les bx, [bp+0x6]
0101 26 FF 9F D4 00           call far word [es:bx+0xd4]
0106 59                       pop cx
0107 59                       pop cx
0108 B8 1C 00                 mov ax, 0x1c
010B 50                       push ax
010C B8 04 00                 mov ax, 0x4
010F 50                       push ax
0110 C4 5E 06                 les bx, [bp+0x6]
0113 26 FF 9F D4 00           call far word [es:bx+0xd4]
0118 59                       pop cx
0119 59                       pop cx
011A B8 1A 00                 mov ax, 0x1a
011D 50                       push ax
011E B8 05 00                 mov ax, 0x5
0121 50                       push ax
0122 C4 5E 06                 les bx, [bp+0x6]
0125 26 FF 9F D4 00           call far word [es:bx+0xd4]
012A 59                       pop cx
012B 59                       pop cx
012C B8 1A 00                 mov ax, 0x1a
012F 50                       push ax
0130 B8 06 00                 mov ax, 0x6
0133 50                       push ax
0134 C4 5E 06                 les bx, [bp+0x6]
0137 26 FF 9F D4 00           call far word [es:bx+0xd4]
013C 59                       pop cx
013D 59                       pop cx
013E                          RETURN

Functn10: "CKEYENC"
0000                          BEGIN
0003                          ax = HasItem(DB) ? 1 : 0 [es:bx+0x50]
0011 74 2E                    jz 0x41
0013 B8 E8 03                 mov ax, 0x3e8
0016 50                       push ax
0017 33 C0                    xor ax, ax
0019 50                       push ax
001A 33 C0                    xor ax, ax
001C 50                       push ax
001D 33 C0                    xor ax, ax
001F 50                       push ax
0020 33 C0                    xor ax, ax
0022 50                       push ax
0023 B8 B6 00                 mov ax, 0xb6
0026 50                       push ax
0027 C4 5E 06                 les bx, [bp+0x6]
002A 26 FF 9F D8 00           call far word [es:bx+0xd8]
002F 83 C4 0C                 add sp, 0xc
0032                          ShowMessage(06DB) = Silver Ogres spring a trap.
003F EB 2E                    jmp 0x6f
0041 B8 DC 05                 mov ax, 0x5dc
0044 50                       push ax
0045 33 C0                    xor ax, ax
0047 50                       push ax
0048 33 C0                    xor ax, ax
004A 50                       push ax
004B B8 CC 00                 mov ax, 0xcc
004E 50                       push ax
004F B8 D1 00                 mov ax, 0xd1
0052 50                       push ax
0053 B8 DB 00                 mov ax, 0xdb
0056 50                       push ax
0057 C4 5E 06                 les bx, [bp+0x6]
005A 26 FF 9F D8 00           call far word [es:bx+0xd8]
005F 83 C4 0C                 add sp, 0xc
0062                          ShowMessage(06F7) = A Silver Ogre plays with an unusual key.
006F C4 5E 06                 les bx, [bp+0x6]
0072 26 FF 9F F0 00           call far word [es:bx+0xf0]
0077 3D 01 00                 cmp ax, 0x1
007A 74 0D                    jz 0x89
007C C4 5E 06                 les bx, [bp+0x6]
007F 26 FF 9F F0 00           call far word [es:bx+0xf0]
0084 3D 02 00                 cmp ax, 0x2
0087 75 26                    jnz 0xaf
0089 B8 21 00                 mov ax, 0x21
008C 50                       push ax
008D B8 01 00                 mov ax, 0x1
0090 50                       push ax
0091 C4 5E 06                 les bx, [bp+0x6]
0094 26 FF 9F D4 00           call far word [es:bx+0xd4]
0099 59                       pop cx
009A 59                       pop cx
009B B8 21 00                 mov ax, 0x21
009E 50                       push ax
009F B8 02 00                 mov ax, 0x2
00A2 50                       push ax
00A3 C4 5E 06                 les bx, [bp+0x6]
00A6 26 FF 9F D4 00           call far word [es:bx+0xd4]
00AB 59                       pop cx
00AC 59                       pop cx
00AD EB 6C                    jmp 0x11b
00AF B8 23 00                 mov ax, 0x23
00B2 50                       push ax
00B3 B8 01 00                 mov ax, 0x1
00B6 50                       push ax
00B7 C4 5E 06                 les bx, [bp+0x6]
00BA 26 FF 9F D4 00           call far word [es:bx+0xd4]
00BF 59                       pop cx
00C0 59                       pop cx
00C1 B8 23 00                 mov ax, 0x23
00C4 50                       push ax
00C5 B8 02 00                 mov ax, 0x2
00C8 50                       push ax
00C9 C4 5E 06                 les bx, [bp+0x6]
00CC 26 FF 9F D4 00           call far word [es:bx+0xd4]
00D1 59                       pop cx
00D2 59                       pop cx
00D3 B8 24 00                 mov ax, 0x24
00D6 50                       push ax
00D7 B8 03 00                 mov ax, 0x3
00DA 50                       push ax
00DB C4 5E 06                 les bx, [bp+0x6]
00DE 26 FF 9F D4 00           call far word [es:bx+0xd4]
00E3 59                       pop cx
00E4 59                       pop cx
00E5 B8 24 00                 mov ax, 0x24
00E8 50                       push ax
00E9 B8 04 00                 mov ax, 0x4
00EC 50                       push ax
00ED C4 5E 06                 les bx, [bp+0x6]
00F0 26 FF 9F D4 00           call far word [es:bx+0xd4]
00F5 59                       pop cx
00F6 59                       pop cx
00F7 B8 22 00                 mov ax, 0x22
00FA 50                       push ax
00FB B8 05 00                 mov ax, 0x5
00FE 50                       push ax
00FF C4 5E 06                 les bx, [bp+0x6]
0102 26 FF 9F D4 00           call far word [es:bx+0xd4]
0107 59                       pop cx
0108 59                       pop cx
0109 B8 22 00                 mov ax, 0x22
010C 50                       push ax
010D B8 06 00                 mov ax, 0x6
0110 50                       push ax
0111 C4 5E 06                 les bx, [bp+0x6]
0114 26 FF 9F D4 00           call far word [es:bx+0xd4]
0119 59                       pop cx
011A 59                       pop cx
011B                          RETURN

Functn11: "EKEYENC"
0000                          BEGIN
0003                          ax = HasItem(DC) ? 1 : 0 [es:bx+0x50]
0011 74 2E                    jz 0x41
0013 B8 20 03                 mov ax, 0x320
0016 50                       push ax
0017 33 C0                    xor ax, ax
0019 50                       push ax
001A 33 C0                    xor ax, ax
001C 50                       push ax
001D 33 C0                    xor ax, ax
001F 50                       push ax
0020 33 C0                    xor ax, ax
0022 50                       push ax
0023 B8 B6 00                 mov ax, 0xb6
0026 50                       push ax
0027 C4 5E 06                 les bx, [bp+0x6]
002A 26 FF 9F D8 00           call far word [es:bx+0xd8]
002F 83 C4 0C                 add sp, 0xc
0032                          ShowMessage(0720) = Lizardites have made this room their home.
003F EB 2D                    jmp 0x6e
0041 B8 D0 07                 mov ax, 0x7d0
0044 50                       push ax
0045 33 C0                    xor ax, ax
0047 50                       push ax
0048 33 C0                    xor ax, ax
004A 50                       push ax
004B 33 C0                    xor ax, ax
004D 50                       push ax
004E B8 B6 00                 mov ax, 0xb6
0051 50                       push ax
0052 B8 DC 00                 mov ax, 0xdc
0055 50                       push ax
0056 C4 5E 06                 les bx, [bp+0x6]
0059 26 FF 9F D8 00           call far word [es:bx+0xd8]
005E 83 C4 0C                 add sp, 0xc
0061                          ShowMessage(074B) = A Lizardite holds a key shaped like the rune sign for I.
006E C4 5E 06                 les bx, [bp+0x6]
0071 26 FF 9F F0 00           call far word [es:bx+0xf0]
0076 3D 01 00                 cmp ax, 0x1
0079 74 0D                    jz 0x88
007B C4 5E 06                 les bx, [bp+0x6]
007E 26 FF 9F F0 00           call far word [es:bx+0xf0]
0083 3D 02 00                 cmp ax, 0x2
0086 75 4A                    jnz 0xd2
0088 B8 27 00                 mov ax, 0x27
008B 50                       push ax
008C B8 01 00                 mov ax, 0x1
008F 50                       push ax
0090 C4 5E 06                 les bx, [bp+0x6]
0093 26 FF 9F D4 00           call far word [es:bx+0xd4]
0098 59                       pop cx
0099 59                       pop cx
009A B8 27 00                 mov ax, 0x27
009D 50                       push ax
009E B8 02 00                 mov ax, 0x2
00A1 50                       push ax
00A2 C4 5E 06                 les bx, [bp+0x6]
00A5 26 FF 9F D4 00           call far word [es:bx+0xd4]
00AA 59                       pop cx
00AB 59                       pop cx
00AC B8 28 00                 mov ax, 0x28
00AF 50                       push ax
00B0 B8 03 00                 mov ax, 0x3
00B3 50                       push ax
00B4 C4 5E 06                 les bx, [bp+0x6]
00B7 26 FF 9F D4 00           call far word [es:bx+0xd4]
00BC 59                       pop cx
00BD 59                       pop cx
00BE B8 28 00                 mov ax, 0x28
00C1 50                       push ax
00C2 B8 04 00                 mov ax, 0x4
00C5 50                       push ax
00C6 C4 5E 06                 les bx, [bp+0x6]
00C9 26 FF 9F D4 00           call far word [es:bx+0xd4]
00CE 59                       pop cx
00CF 59                       pop cx
00D0 EB 6C                    jmp 0x13e
00D2 B8 28 00                 mov ax, 0x28
00D5 50                       push ax
00D6 B8 01 00                 mov ax, 0x1
00D9 50                       push ax
00DA C4 5E 06                 les bx, [bp+0x6]
00DD 26 FF 9F D4 00           call far word [es:bx+0xd4]
00E2 59                       pop cx
00E3 59                       pop cx
00E4 B8 28 00                 mov ax, 0x28
00E7 50                       push ax
00E8 B8 02 00                 mov ax, 0x2
00EB 50                       push ax
00EC C4 5E 06                 les bx, [bp+0x6]
00EF 26 FF 9F D4 00           call far word [es:bx+0xd4]
00F4 59                       pop cx
00F5 59                       pop cx
00F6 B8 27 00                 mov ax, 0x27
00F9 50                       push ax
00FA B8 03 00                 mov ax, 0x3
00FD 50                       push ax
00FE C4 5E 06                 les bx, [bp+0x6]
0101 26 FF 9F D4 00           call far word [es:bx+0xd4]
0106 59                       pop cx
0107 59                       pop cx
0108 B8 27 00                 mov ax, 0x27
010B 50                       push ax
010C B8 04 00                 mov ax, 0x4
010F 50                       push ax
0110 C4 5E 06                 les bx, [bp+0x6]
0113 26 FF 9F D4 00           call far word [es:bx+0xd4]
0118 59                       pop cx
0119 59                       pop cx
011A B8 28 00                 mov ax, 0x28
011D 50                       push ax
011E B8 05 00                 mov ax, 0x5
0121 50                       push ax
0122 C4 5E 06                 les bx, [bp+0x6]
0125 26 FF 9F D4 00           call far word [es:bx+0xd4]
012A 59                       pop cx
012B 59                       pop cx
012C B8 28 00                 mov ax, 0x28
012F 50                       push ax
0130 B8 06 00                 mov ax, 0x6
0133 50                       push ax
0134 C4 5E 06                 les bx, [bp+0x6]
0137 26 FF 9F D4 00           call far word [es:bx+0xd4]
013C 59                       pop cx
013D 59                       pop cx
013E                          RETURN

Functn12: "RUNECLUE"
0000                          BEGIN
0003                          ShowMessage(0784) = The tapestry contains runes...
0010                          ShowRunes(5007) [es:bx+0xf4] = Take the Crown, Robe and Scepter to the Mausoleum of Cleowyn. Use them in the correct niches to open the true path to the king's tomb.
001D                          RETURN

Functn13: "CLUEB"
0000                          BEGIN
0003                          ShowMessage(082A) = There are runes on this tapestry...
0010                          ShowRunes(5008) [es:bx+0xf4] = Go west, but not farthest west, and give the Crown when you can go no more. Go east, but not farthest east, and give the Robe when you can go no more. When Crown and Robe are given, continue to the door of the tomb. Give the Scepter there to be rewarded.
001D                          RETURN

Functn14: "TUFMNSTR"
0000                          BEGIN
0003 C4 5E 06                 les bx, [bp+0x6]
0006 26 FF 9F F0 00           call far word [es:bx+0xf0]
000B 3D 01 00                 cmp ax, 0x1
000E 75 27                    jnz 0x37
0010 B8 1D 00                 mov ax, 0x1d
0013 50                       push ax
0014 B8 01 00                 mov ax, 0x1
0017 50                       push ax
0018 C4 5E 06                 les bx, [bp+0x6]
001B 26 FF 9F D4 00           call far word [es:bx+0xd4]
0020 59                       pop cx
0021 59                       pop cx
0022 B8 1F 00                 mov ax, 0x1f
0025 50                       push ax
0026 B8 02 00                 mov ax, 0x2
0029 50                       push ax
002A C4 5E 06                 les bx, [bp+0x6]
002D 26 FF 9F D4 00           call far word [es:bx+0xd4]
0032 59                       pop cx
0033 59                       pop cx
0034 E9 3F 01                 jmp 0x176
0037 C4 5E 06                 les bx, [bp+0x6]
003A 26 FF 9F F0 00           call far word [es:bx+0xf0]
003F 3D 02 00                 cmp ax, 0x2
0042 75 5D                    jnz 0xa1
0044 B8 1E 00                 mov ax, 0x1e
0047 50                       push ax
0048 B8 01 00                 mov ax, 0x1
004B 50                       push ax
004C C4 5E 06                 les bx, [bp+0x6]
004F 26 FF 9F D4 00           call far word [es:bx+0xd4]
0054 59                       pop cx
0055 59                       pop cx
0056 B8 1E 00                 mov ax, 0x1e
0059 50                       push ax
005A B8 02 00                 mov ax, 0x2
005D 50                       push ax
005E C4 5E 06                 les bx, [bp+0x6]
0061 26 FF 9F D4 00           call far word [es:bx+0xd4]
0066 59                       pop cx
0067 59                       pop cx
0068 B8 1F 00                 mov ax, 0x1f
006B 50                       push ax
006C B8 03 00                 mov ax, 0x3
006F 50                       push ax
0070 C4 5E 06                 les bx, [bp+0x6]
0073 26 FF 9F D4 00           call far word [es:bx+0xd4]
0078 59                       pop cx
0079 59                       pop cx
007A B8 1F 00                 mov ax, 0x1f
007D 50                       push ax
007E B8 04 00                 mov ax, 0x4
0081 50                       push ax
0082 C4 5E 06                 les bx, [bp+0x6]
0085 26 FF 9F D4 00           call far word [es:bx+0xd4]
008A 59                       pop cx
008B 59                       pop cx
008C B8 20 00                 mov ax, 0x20
008F 50                       push ax
0090 B8 05 00                 mov ax, 0x5
0093 50                       push ax
0094 C4 5E 06                 les bx, [bp+0x6]
0097 26 FF 9F D4 00           call far word [es:bx+0xd4]
009C 59                       pop cx
009D 59                       pop cx
009E E9 D5 00                 jmp 0x176
00A1 C4 5E 06                 les bx, [bp+0x6]
00A4 26 FF 9F F0 00           call far word [es:bx+0xf0]
00A9 3D 03 00                 cmp ax, 0x3
00AC 75 5C                    jnz 0x10a
00AE B8 1F 00                 mov ax, 0x1f
00B1 50                       push ax
00B2 B8 01 00                 mov ax, 0x1
00B5 50                       push ax
00B6 C4 5E 06                 les bx, [bp+0x6]
00B9 26 FF 9F D4 00           call far word [es:bx+0xd4]
00BE 59                       pop cx
00BF 59                       pop cx
00C0 B8 20 00                 mov ax, 0x20
00C3 50                       push ax
00C4 B8 02 00                 mov ax, 0x2
00C7 50                       push ax
00C8 C4 5E 06                 les bx, [bp+0x6]
00CB 26 FF 9F D4 00           call far word [es:bx+0xd4]
00D0 59                       pop cx
00D1 59                       pop cx
00D2 B8 1F 00                 mov ax, 0x1f
00D5 50                       push ax
00D6 B8 03 00                 mov ax, 0x3
00D9 50                       push ax
00DA C4 5E 06                 les bx, [bp+0x6]
00DD 26 FF 9F D4 00           call far word [es:bx+0xd4]
00E2 59                       pop cx
00E3 59                       pop cx
00E4 B8 20 00                 mov ax, 0x20
00E7 50                       push ax
00E8 B8 04 00                 mov ax, 0x4
00EB 50                       push ax
00EC C4 5E 06                 les bx, [bp+0x6]
00EF 26 FF 9F D4 00           call far word [es:bx+0xd4]
00F4 59                       pop cx
00F5 59                       pop cx
00F6 B8 1E 00                 mov ax, 0x1e
00F9 50                       push ax
00FA B8 05 00                 mov ax, 0x5
00FD 50                       push ax
00FE C4 5E 06                 les bx, [bp+0x6]
0101 26 FF 9F D4 00           call far word [es:bx+0xd4]
0106 59                       pop cx
0107 59                       pop cx
0108 EB 6C                    jmp 0x176
010A B8 20 00                 mov ax, 0x20
010D 50                       push ax
010E B8 01 00                 mov ax, 0x1
0111 50                       push ax
0112 C4 5E 06                 les bx, [bp+0x6]
0115 26 FF 9F D4 00           call far word [es:bx+0xd4]
011A 59                       pop cx
011B 59                       pop cx
011C B8 20 00                 mov ax, 0x20
011F 50                       push ax
0120 B8 02 00                 mov ax, 0x2
0123 50                       push ax
0124 C4 5E 06                 les bx, [bp+0x6]
0127 26 FF 9F D4 00           call far word [es:bx+0xd4]
012C 59                       pop cx
012D 59                       pop cx
012E B8 1F 00                 mov ax, 0x1f
0131 50                       push ax
0132 B8 03 00                 mov ax, 0x3
0135 50                       push ax
0136 C4 5E 06                 les bx, [bp+0x6]
0139 26 FF 9F D4 00           call far word [es:bx+0xd4]
013E 59                       pop cx
013F 59                       pop cx
0140 B8 1F 00                 mov ax, 0x1f
0143 50                       push ax
0144 B8 04 00                 mov ax, 0x4
0147 50                       push ax
0148 C4 5E 06                 les bx, [bp+0x6]
014B 26 FF 9F D4 00           call far word [es:bx+0xd4]
0150 59                       pop cx
0151 59                       pop cx
0152 B8 1F 00                 mov ax, 0x1f
0155 50                       push ax
0156 B8 05 00                 mov ax, 0x5
0159 50                       push ax
015A C4 5E 06                 les bx, [bp+0x6]
015D 26 FF 9F D4 00           call far word [es:bx+0xd4]
0162 59                       pop cx
0163 59                       pop cx
0164 B8 1F 00                 mov ax, 0x1f
0167 50                       push ax
0168 B8 06 00                 mov ax, 0x6
016B 50                       push ax
016C C4 5E 06                 les bx, [bp+0x6]
016F 26 FF 9F D4 00           call far word [es:bx+0xd4]
0174 59                       pop cx
0175 59                       pop cx
0176                          RETURN

Functn17: "GOLDAENC"
0000                          BEGIN
0003                          ax = CheckState(02, 1F) [es:bx+0xf0]
0014 3D 01 00                 cmp ax, 0x1
0017 75 2F                    jnz 0x48
0019 B8 84 03                 mov ax, 0x384
001C 50                       push ax
001D 33 C0                    xor ax, ax
001F 50                       push ax
0020 33 C0                    xor ax, ax
0022 50                       push ax
0023 33 C0                    xor ax, ax
0025 50                       push ax
0026 B8 B6 00                 mov ax, 0xb6
0029 50                       push ax
002A B8 D0 00                 mov ax, 0xd0
002D 50                       push ax
002E C4 5E 06                 les bx, [bp+0x6]
0031 26 FF 9F D8 00           call far word [es:bx+0xd8]
0036 83 C4 0C                 add sp, 0xc
0039                          ShowMessage(094D) = You encounter Bugbears.
0046 EB 41                    jmp 0x89
0048 B8 10 0E                 mov ax, 0xe10
004B 50                       push ax
004C 33 C0                    xor ax, ax
004E 50                       push ax
004F 33 C0                    xor ax, ax
0051 50                       push ax
0052 33 C0                    xor ax, ax
0054 50                       push ax
0055 33 C0                    xor ax, ax
0057 50                       push ax
0058 B8 B7 00                 mov ax, 0xb7
005B 50                       push ax
005C C4 5E 06                 les bx, [bp+0x6]
005F 26 FF 9F D8 00           call far word [es:bx+0xd8]
0064 83 C4 0C                 add sp, 0xc
0067 B8 01 00                 mov ax, 0x1
006A 50                       push ax
006B B8 1F 00                 mov ax, 0x1f
006E 50                       push ax
006F B8 02 00                 mov ax, 0x2
0072 50                       push ax
0073 C4 5E 06                 les bx, [bp+0x6]
0076 26 FF 1F                 call far word [es:bx]
0079 83 C4 06                 add sp, 0x6
007C                          ShowMessage(0965) = Bugbears stand near some gold.
0089 C4 5E 06                 les bx, [bp+0x6]
008C 26 FF 9F F0 00           call far word [es:bx+0xf0]
0091 3D 01 00                 cmp ax, 0x1
0094 75 15                    jnz 0xab
0096 B8 01 00                 mov ax, 0x1
0099 50                       push ax
009A B8 01 00                 mov ax, 0x1
009D 50                       push ax
009E C4 5E 06                 les bx, [bp+0x6]
00A1 26 FF 9F D4 00           call far word [es:bx+0xd4]
00A6 59                       pop cx
00A7 59                       pop cx
00A8 E9 C1 00                 jmp 0x16c
00AB C4 5E 06                 les bx, [bp+0x6]
00AE 26 FF 9F F0 00           call far word [es:bx+0xf0]
00B3 3D 02 00                 cmp ax, 0x2
00B6 75 27                    jnz 0xdf
00B8 B8 01 00                 mov ax, 0x1
00BB 50                       push ax
00BC B8 01 00                 mov ax, 0x1
00BF 50                       push ax
00C0 C4 5E 06                 les bx, [bp+0x6]
00C3 26 FF 9F D4 00           call far word [es:bx+0xd4]
00C8 59                       pop cx
00C9 59                       pop cx
00CA B8 02 00                 mov ax, 0x2
00CD 50                       push ax
00CE B8 02 00                 mov ax, 0x2
00D1 50                       push ax
00D2 C4 5E 06                 les bx, [bp+0x6]
00D5 26 FF 9F D4 00           call far word [es:bx+0xd4]
00DA 59                       pop cx
00DB 59                       pop cx
00DC E9 8D 00                 jmp 0x16c
00DF C4 5E 06                 les bx, [bp+0x6]
00E2 26 FF 9F F0 00           call far word [es:bx+0xf0]
00E7 3D 03 00                 cmp ax, 0x3
00EA 75 38                    jnz 0x124
00EC B8 01 00                 mov ax, 0x1
00EF 50                       push ax
00F0 B8 01 00                 mov ax, 0x1
00F3 50                       push ax
00F4 C4 5E 06                 les bx, [bp+0x6]
00F7 26 FF 9F D4 00           call far word [es:bx+0xd4]
00FC 59                       pop cx
00FD 59                       pop cx
00FE B8 02 00                 mov ax, 0x2
0101 50                       push ax
0102 B8 02 00                 mov ax, 0x2
0105 50                       push ax
0106 C4 5E 06                 les bx, [bp+0x6]
0109 26 FF 9F D4 00           call far word [es:bx+0xd4]
010E 59                       pop cx
010F 59                       pop cx
0110 B8 03 00                 mov ax, 0x3
0113 50                       push ax
0114 B8 03 00                 mov ax, 0x3
0117 50                       push ax
0118 C4 5E 06                 les bx, [bp+0x6]
011B 26 FF 9F D4 00           call far word [es:bx+0xd4]
0120 59                       pop cx
0121 59                       pop cx
0122 EB 48                    jmp 0x16c
0124 B8 02 00                 mov ax, 0x2
0127 50                       push ax
0128 B8 01 00                 mov ax, 0x1
012B 50                       push ax
012C C4 5E 06                 les bx, [bp+0x6]
012F 26 FF 9F D4 00           call far word [es:bx+0xd4]
0134 59                       pop cx
0135 59                       pop cx
0136 B8 03 00                 mov ax, 0x3
0139 50                       push ax
013A B8 02 00                 mov ax, 0x2
013D 50                       push ax
013E C4 5E 06                 les bx, [bp+0x6]
0141 26 FF 9F D4 00           call far word [es:bx+0xd4]
0146 59                       pop cx
0147 59                       pop cx
0148 B8 03 00                 mov ax, 0x3
014B 50                       push ax
014C B8 03 00                 mov ax, 0x3
014F 50                       push ax
0150 C4 5E 06                 les bx, [bp+0x6]
0153 26 FF 9F D4 00           call far word [es:bx+0xd4]
0158 59                       pop cx
0159 59                       pop cx
015A B8 02 00                 mov ax, 0x2
015D 50                       push ax
015E B8 04 00                 mov ax, 0x4
0161 50                       push ax
0162 C4 5E 06                 les bx, [bp+0x6]
0165 26 FF 9F D4 00           call far word [es:bx+0xd4]
016A 59                       pop cx
016B 59                       pop cx
016C                          RETURN

Functn18: "GOLDBENC"
0000                          BEGIN
0003                          ax = CheckState(02, 20) [es:bx+0xf0]
0014 3D 01 00                 cmp ax, 0x1
0017 75 2E                    jnz 0x47
0019 B8 20 03                 mov ax, 0x320
001C 50                       push ax
001D 33 C0                    xor ax, ax
001F 50                       push ax
0020 33 C0                    xor ax, ax
0022 50                       push ax
0023 33 C0                    xor ax, ax
0025 50                       push ax
0026 33 C0                    xor ax, ax
0028 50                       push ax
0029 B8 B7 00                 mov ax, 0xb7
002C 50                       push ax
002D C4 5E 06                 les bx, [bp+0x6]
0030 26 FF 9F D8 00           call far word [es:bx+0xd8]
0035 83 C4 0C                 add sp, 0xc
0038                          ShowMessage(0984) = Dire Wolves scratch the floor impatiently.
0045 EB 41                    jmp 0x88
0047 B8 A0 0F                 mov ax, 0xfa0
004A 50                       push ax
004B 33 C0                    xor ax, ax
004D 50                       push ax
004E 33 C0                    xor ax, ax
0050 50                       push ax
0051 33 C0                    xor ax, ax
0053 50                       push ax
0054 33 C0                    xor ax, ax
0056 50                       push ax
0057 B8 8E 00                 mov ax, 0x8e
005A 50                       push ax
005B C4 5E 06                 les bx, [bp+0x6]
005E 26 FF 9F D8 00           call far word [es:bx+0xd8]
0063 83 C4 0C                 add sp, 0xc
0066 B8 01 00                 mov ax, 0x1
0069 50                       push ax
006A B8 20 00                 mov ax, 0x20
006D 50                       push ax
006E B8 02 00                 mov ax, 0x2
0071 50                       push ax
0072 C4 5E 06                 les bx, [bp+0x6]
0075 26 FF 1F                 call far word [es:bx]
0078 83 C4 06                 add sp, 0x6
007B                          ShowMessage(09AF) = A Dire Wolf plays with a coin purse.
0088 C4 5E 06                 les bx, [bp+0x6]
008B 26 FF 9F F0 00           call far word [es:bx+0xf0]
0090 3D 01 00                 cmp ax, 0x1
0093 74 0D                    jz 0xa2
0095 C4 5E 06                 les bx, [bp+0x6]
0098 26 FF 9F F0 00           call far word [es:bx+0xf0]
009D 3D 02 00                 cmp ax, 0x2
00A0 75 26                    jnz 0xc8
00A2 B8 0E 00                 mov ax, 0xe
00A5 50                       push ax
00A6 B8 01 00                 mov ax, 0x1
00A9 50                       push ax
00AA C4 5E 06                 les bx, [bp+0x6]
00AD 26 FF 9F D4 00           call far word [es:bx+0xd4]
00B2 59                       pop cx
00B3 59                       pop cx
00B4 B8 0E 00                 mov ax, 0xe
00B7 50                       push ax
00B8 B8 02 00                 mov ax, 0x2
00BB 50                       push ax
00BC C4 5E 06                 les bx, [bp+0x6]
00BF 26 FF 9F D4 00           call far word [es:bx+0xd4]
00C4 59                       pop cx
00C5 59                       pop cx
00C6 EB 48                    jmp 0x110
00C8 B8 10 00                 mov ax, 0x10
00CB 50                       push ax
00CC B8 01 00                 mov ax, 0x1
00CF 50                       push ax
00D0 C4 5E 06                 les bx, [bp+0x6]
00D3 26 FF 9F D4 00           call far word [es:bx+0xd4]
00D8 59                       pop cx
00D9 59                       pop cx
00DA B8 10 00                 mov ax, 0x10
00DD 50                       push ax
00DE B8 02 00                 mov ax, 0x2
00E1 50                       push ax
00E2 C4 5E 06                 les bx, [bp+0x6]
00E5 26 FF 9F D4 00           call far word [es:bx+0xd4]
00EA 59                       pop cx
00EB 59                       pop cx
00EC B8 0E 00                 mov ax, 0xe
00EF 50                       push ax
00F0 B8 03 00                 mov ax, 0x3
00F3 50                       push ax
00F4 C4 5E 06                 les bx, [bp+0x6]
00F7 26 FF 9F D4 00           call far word [es:bx+0xd4]
00FC 59                       pop cx
00FD 59                       pop cx
00FE B8 0F 00                 mov ax, 0xf
0101 50                       push ax
0102 B8 04 00                 mov ax, 0x4
0105 50                       push ax
0106 C4 5E 06                 les bx, [bp+0x6]
0109 26 FF 9F D4 00           call far word [es:bx+0xd4]
010E 59                       pop cx
010F 59                       pop cx
0110                          RETURN

Functn19: "GOLDCENC"
0000                          BEGIN
0003                          ax = CheckState(02, 21) [es:bx+0xf0]
0014 3D 01 00                 cmp ax, 0x1
0017 75 2E                    jnz 0x47
0019 B8 EE 02                 mov ax, 0x2ee
001C 50                       push ax
001D 33 C0                    xor ax, ax
001F 50                       push ax
0020 33 C0                    xor ax, ax
0022 50                       push ax
0023 33 C0                    xor ax, ax
0025 50                       push ax
0026 33 C0                    xor ax, ax
0028 50                       push ax
0029 B8 D1 00                 mov ax, 0xd1
002C 50                       push ax
002D C4 5E 06                 les bx, [bp+0x6]
0030 26 FF 9F D8 00           call far word [es:bx+0xd8]
0035 83 C4 0C                 add sp, 0xc
0038                          ShowMessage(09D4) = You suddenly feel nervous.
0045 EB 41                    jmp 0x88
0047 B8 7C 15                 mov ax, 0x157c
004A 50                       push ax
004B 33 C0                    xor ax, ax
004D 50                       push ax
004E 33 C0                    xor ax, ax
0050 50                       push ax
0051 33 C0                    xor ax, ax
0053 50                       push ax
0054 33 C0                    xor ax, ax
0056 50                       push ax
0057 B8 CC 00                 mov ax, 0xcc
005A 50                       push ax
005B C4 5E 06                 les bx, [bp+0x6]
005E 26 FF 9F D8 00           call far word [es:bx+0xd8]
0063 83 C4 0C                 add sp, 0xc
0066 B8 01 00                 mov ax, 0x1
0069 50                       push ax
006A B8 21 00                 mov ax, 0x21
006D 50                       push ax
006E B8 02 00                 mov ax, 0x2
0071 50                       push ax
0072 C4 5E 06                 les bx, [bp+0x6]
0075 26 FF 1F                 call far word [es:bx]
0078 83 C4 06                 add sp, 0x6
007B                          ShowMessage(09EF) = Hungry lions prowl the area.
0088 C4 5E 06                 les bx, [bp+0x6]
008B 26 FF 9F F0 00           call far word [es:bx+0xf0]
0090 3D 01 00                 cmp ax, 0x1
0093 74 0D                    jz 0xa2
0095 C4 5E 06                 les bx, [bp+0x6]
0098 26 FF 9F F0 00           call far word [es:bx+0xf0]
009D 3D 02 00                 cmp ax, 0x2
00A0 75 27                    jnz 0xc9
00A2 B8 13 00                 mov ax, 0x13
00A5 50                       push ax
00A6 B8 01 00                 mov ax, 0x1
00A9 50                       push ax
00AA C4 5E 06                 les bx, [bp+0x6]
00AD 26 FF 9F D4 00           call far word [es:bx+0xd4]
00B2 59                       pop cx
00B3 59                       pop cx
00B4 B8 14 00                 mov ax, 0x14
00B7 50                       push ax
00B8 B8 02 00                 mov ax, 0x2
00BB 50                       push ax
00BC C4 5E 06                 les bx, [bp+0x6]
00BF 26 FF 9F D4 00           call far word [es:bx+0xd4]
00C4 59                       pop cx
00C5 59                       pop cx
00C6 E9 8D 00                 jmp 0x156
00C9 C4 5E 06                 les bx, [bp+0x6]
00CC 26 FF 9F F0 00           call far word [es:bx+0xf0]
00D1 3D 03 00                 cmp ax, 0x3
00D4 75 38                    jnz 0x10e
00D6 B8 14 00                 mov ax, 0x14
00D9 50                       push ax
00DA B8 01 00                 mov ax, 0x1
00DD 50                       push ax
00DE C4 5E 06                 les bx, [bp+0x6]
00E1 26 FF 9F D4 00           call far word [es:bx+0xd4]
00E6 59                       pop cx
00E7 59                       pop cx
00E8 B8 14 00                 mov ax, 0x14
00EB 50                       push ax
00EC B8 02 00                 mov ax, 0x2
00EF 50                       push ax
00F0 C4 5E 06                 les bx, [bp+0x6]
00F3 26 FF 9F D4 00           call far word [es:bx+0xd4]
00F8 59                       pop cx
00F9 59                       pop cx
00FA B8 15 00                 mov ax, 0x15
00FD 50                       push ax
00FE B8 03 00                 mov ax, 0x3
0101 50                       push ax
0102 C4 5E 06                 les bx, [bp+0x6]
0105 26 FF 9F D4 00           call far word [es:bx+0xd4]
010A 59                       pop cx
010B 59                       pop cx
010C EB 48                    jmp 0x156
010E B8 15 00                 mov ax, 0x15
0111 50                       push ax
0112 B8 01 00                 mov ax, 0x1
0115 50                       push ax
0116 C4 5E 06                 les bx, [bp+0x6]
0119 26 FF 9F D4 00           call far word [es:bx+0xd4]
011E 59                       pop cx
011F 59                       pop cx
0120 B8 15 00                 mov ax, 0x15
0123 50                       push ax
0124 B8 02 00                 mov ax, 0x2
0127 50                       push ax
0128 C4 5E 06                 les bx, [bp+0x6]
012B 26 FF 9F D4 00           call far word [es:bx+0xd4]
0130 59                       pop cx
0131 59                       pop cx
0132 B8 16 00                 mov ax, 0x16
0135 50                       push ax
0136 B8 03 00                 mov ax, 0x3
0139 50                       push ax
013A C4 5E 06                 les bx, [bp+0x6]
013D 26 FF 9F D4 00           call far word [es:bx+0xd4]
0142 59                       pop cx
0143 59                       pop cx
0144 B8 16 00                 mov ax, 0x16
0147 50                       push ax
0148 B8 04 00                 mov ax, 0x4
014B 50                       push ax
014C C4 5E 06                 les bx, [bp+0x6]
014F 26 FF 9F D4 00           call far word [es:bx+0xd4]
0154 59                       pop cx
0155 59                       pop cx
0156                          RETURN

Functn1A: "ITEMCENC"
0000                          BEGIN
0003                          ax = HasItem(C6) ? 1 : 0 [es:bx+0x50]
0011 74 2E                    jz 0x41
0013 B8 FA 00                 mov ax, 0xfa
0016 50                       push ax
0017 33 C0                    xor ax, ax
0019 50                       push ax
001A 33 C0                    xor ax, ax
001C 50                       push ax
001D 33 C0                    xor ax, ax
001F 50                       push ax
0020 33 C0                    xor ax, ax
0022 50                       push ax
0023 B8 CD 00                 mov ax, 0xcd
0026 50                       push ax
0027 C4 5E 06                 les bx, [bp+0x6]
002A 26 FF 9F D8 00           call far word [es:bx+0xd8]
002F 83 C4 0C                 add sp, 0xc
0032                          ShowMessage(0A0C) = The floor crawls with Leeches.
003F EB 2C                    jmp 0x6d
0041 B8 E8 03                 mov ax, 0x3e8
0044 50                       push ax
0045 33 C0                    xor ax, ax
0047 50                       push ax
0048 33 C0                    xor ax, ax
004A 50                       push ax
004B 33 C0                    xor ax, ax
004D 50                       push ax
004E 33 C0                    xor ax, ax
0050 50                       push ax
0051 B8 C6 00                 mov ax, 0xc6
0054 50                       push ax
0055 C4 5E 06                 les bx, [bp+0x6]
0058 26 FF 9F D8 00           call far word [es:bx+0xd8]
005D 83 C4 0C                 add sp, 0xc
0060                          ShowMessage(0A2B) = Leeches swarm over a magic wand.
006D C4 5E 06                 les bx, [bp+0x6]
0070 26 FF 9F F0 00           call far word [es:bx+0xf0]
0075 3D 01 00                 cmp ax, 0x1
0078 75 27                    jnz 0xa1
007A B8 1B 00                 mov ax, 0x1b
007D 50                       push ax
007E B8 01 00                 mov ax, 0x1
0081 50                       push ax
0082 C4 5E 06                 les bx, [bp+0x6]
0085 26 FF 9F D4 00           call far word [es:bx+0xd4]
008A 59                       pop cx
008B 59                       pop cx
008C B8 1B 00                 mov ax, 0x1b
008F 50                       push ax
0090 B8 02 00                 mov ax, 0x2
0093 50                       push ax
0094 C4 5E 06                 les bx, [bp+0x6]
0097 26 FF 9F D4 00           call far word [es:bx+0xd4]
009C 59                       pop cx
009D 59                       pop cx
009E E9 C3 00                 jmp 0x164
00A1 C4 5E 06                 les bx, [bp+0x6]
00A4 26 FF 9F F0 00           call far word [es:bx+0xf0]
00A9 3D 02 00                 cmp ax, 0x2
00AC 75 4A                    jnz 0xf8
00AE B8 1C 00                 mov ax, 0x1c
00B1 50                       push ax
00B2 B8 01 00                 mov ax, 0x1
00B5 50                       push ax
00B6 C4 5E 06                 les bx, [bp+0x6]
00B9 26 FF 9F D4 00           call far word [es:bx+0xd4]
00BE 59                       pop cx
00BF 59                       pop cx
00C0 B8 1C 00                 mov ax, 0x1c
00C3 50                       push ax
00C4 B8 02 00                 mov ax, 0x2
00C7 50                       push ax
00C8 C4 5E 06                 les bx, [bp+0x6]
00CB 26 FF 9F D4 00           call far word [es:bx+0xd4]
00D0 59                       pop cx
00D1 59                       pop cx
00D2 B8 1B 00                 mov ax, 0x1b
00D5 50                       push ax
00D6 B8 03 00                 mov ax, 0x3
00D9 50                       push ax
00DA C4 5E 06                 les bx, [bp+0x6]
00DD 26 FF 9F D4 00           call far word [es:bx+0xd4]
00E2 59                       pop cx
00E3 59                       pop cx
00E4 B8 1B 00                 mov ax, 0x1b
00E7 50                       push ax
00E8 B8 04 00                 mov ax, 0x4
00EB 50                       push ax
00EC C4 5E 06                 les bx, [bp+0x6]
00EF 26 FF 9F D4 00           call far word [es:bx+0xd4]
00F4 59                       pop cx
00F5 59                       pop cx
00F6 EB 6C                    jmp 0x164
00F8 B8 16 00                 mov ax, 0x16
00FB 50                       push ax
00FC B8 01 00                 mov ax, 0x1
00FF 50                       push ax
0100 C4 5E 06                 les bx, [bp+0x6]
0103 26 FF 9F D4 00           call far word [es:bx+0xd4]
0108 59                       pop cx
0109 59                       pop cx
010A B8 16 00                 mov ax, 0x16
010D 50                       push ax
010E B8 02 00                 mov ax, 0x2
0111 50                       push ax
0112 C4 5E 06                 les bx, [bp+0x6]
0115 26 FF 9F D4 00           call far word [es:bx+0xd4]
011A 59                       pop cx
011B 59                       pop cx
011C B8 1C 00                 mov ax, 0x1c
011F 50                       push ax
0120 B8 03 00                 mov ax, 0x3
0123 50                       push ax
0124 C4 5E 06                 les bx, [bp+0x6]
0127 26 FF 9F D4 00           call far word [es:bx+0xd4]
012C 59                       pop cx
012D 59                       pop cx
012E B8 1C 00                 mov ax, 0x1c
0131 50                       push ax
0132 B8 04 00                 mov ax, 0x4
0135 50                       push ax
0136 C4 5E 06                 les bx, [bp+0x6]
0139 26 FF 9F D4 00           call far word [es:bx+0xd4]
013E 59                       pop cx
013F 59                       pop cx
0140 B8 1B 00                 mov ax, 0x1b
0143 50                       push ax
0144 B8 05 00                 mov ax, 0x5
0147 50                       push ax
0148 C4 5E 06                 les bx, [bp+0x6]
014B 26 FF 9F D4 00           call far word [es:bx+0xd4]
0150 59                       pop cx
0151 59                       pop cx
0152 B8 1B 00                 mov ax, 0x1b
0155 50                       push ax
0156 B8 06 00                 mov ax, 0x6
0159 50                       push ax
015A C4 5E 06                 les bx, [bp+0x6]
015D 26 FF 9F D4 00           call far word [es:bx+0xd4]
0162 59                       pop cx
0163 59                       pop cx
0164                          RETURN

Functn1B: "ITEMBENC"
0000                          BEGIN
0003                          ax = HasItem(96) ? 1 : 0 [es:bx+0x50]
0011 74 2D                    jz 0x40
0013 33 C0                    xor ax, ax
0015 50                       push ax
0016 33 C0                    xor ax, ax
0018 50                       push ax
0019 33 C0                    xor ax, ax
001B 50                       push ax
001C 33 C0                    xor ax, ax
001E 50                       push ax
001F 33 C0                    xor ax, ax
0021 50                       push ax
0022 B8 CF 00                 mov ax, 0xcf
0025 50                       push ax
0026 C4 5E 06                 les bx, [bp+0x6]
0029 26 FF 9F D8 00           call far word [es:bx+0xd8]
002E 83 C4 0C                 add sp, 0xc
0031                          ShowMessage(0A4C) = Giants interrupt your search.
003E EB 2B                    jmp 0x6b
0040 33 C0                    xor ax, ax
0042 50                       push ax
0043 33 C0                    xor ax, ax
0045 50                       push ax
0046 33 C0                    xor ax, ax
0048 50                       push ax
0049 33 C0                    xor ax, ax
004B 50                       push ax
004C 33 C0                    xor ax, ax
004E 50                       push ax
004F B8 96 00                 mov ax, 0x96
0052 50                       push ax
0053 C4 5E 06                 les bx, [bp+0x6]
0056 26 FF 9F D8 00           call far word [es:bx+0xd8]
005B 83 C4 0C                 add sp, 0xc
005E                          ShowMessage(0A6A) = A Giant wears a medallion around his neck.
006B C4 5E 06                 les bx, [bp+0x6]
006E 26 FF 9F F0 00           call far word [es:bx+0xf0]
0073 3D 01 00                 cmp ax, 0x1
0076 75 15                    jnz 0x8d
0078 B8 25 00                 mov ax, 0x25
007B 50                       push ax
007C B8 01 00                 mov ax, 0x1
007F 50                       push ax
0080 C4 5E 06                 les bx, [bp+0x6]
0083 26 FF 9F D4 00           call far word [es:bx+0xd4]
0088 59                       pop cx
0089 59                       pop cx
008A E9 B1 00                 jmp 0x13e
008D C4 5E 06                 les bx, [bp+0x6]
0090 26 FF 9F F0 00           call far word [es:bx+0xf0]
0095 3D 02 00                 cmp ax, 0x2
0098 75 38                    jnz 0xd2
009A B8 25 00                 mov ax, 0x25
009D 50                       push ax
009E B8 01 00                 mov ax, 0x1
00A1 50                       push ax
00A2 C4 5E 06                 les bx, [bp+0x6]
00A5 26 FF 9F D4 00           call far word [es:bx+0xd4]
00AA 59                       pop cx
00AB 59                       pop cx
00AC B8 26 00                 mov ax, 0x26
00AF 50                       push ax
00B0 B8 02 00                 mov ax, 0x2
00B3 50                       push ax
00B4 C4 5E 06                 les bx, [bp+0x6]
00B7 26 FF 9F D4 00           call far word [es:bx+0xd4]
00BC 59                       pop cx
00BD 59                       pop cx
00BE B8 25 00                 mov ax, 0x25
00C1 50                       push ax
00C2 B8 03 00                 mov ax, 0x3
00C5 50                       push ax
00C6 C4 5E 06                 les bx, [bp+0x6]
00C9 26 FF 9F D4 00           call far word [es:bx+0xd4]
00CE 59                       pop cx
00CF 59                       pop cx
00D0 EB 6C                    jmp 0x13e
00D2 B8 25 00                 mov ax, 0x25
00D5 50                       push ax
00D6 B8 01 00                 mov ax, 0x1
00D9 50                       push ax
00DA C4 5E 06                 les bx, [bp+0x6]
00DD 26 FF 9F D4 00           call far word [es:bx+0xd4]
00E2 59                       pop cx
00E3 59                       pop cx
00E4 B8 25 00                 mov ax, 0x25
00E7 50                       push ax
00E8 B8 02 00                 mov ax, 0x2
00EB 50                       push ax
00EC C4 5E 06                 les bx, [bp+0x6]
00EF 26 FF 9F D4 00           call far word [es:bx+0xd4]
00F4 59                       pop cx
00F5 59                       pop cx
00F6 B8 26 00                 mov ax, 0x26
00F9 50                       push ax
00FA B8 03 00                 mov ax, 0x3
00FD 50                       push ax
00FE C4 5E 06                 les bx, [bp+0x6]
0101 26 FF 9F D4 00           call far word [es:bx+0xd4]
0106 59                       pop cx
0107 59                       pop cx
0108 B8 26 00                 mov ax, 0x26
010B 50                       push ax
010C B8 04 00                 mov ax, 0x4
010F 50                       push ax
0110 C4 5E 06                 les bx, [bp+0x6]
0113 26 FF 9F D4 00           call far word [es:bx+0xd4]
0118 59                       pop cx
0119 59                       pop cx
011A B8 25 00                 mov ax, 0x25
011D 50                       push ax
011E B8 05 00                 mov ax, 0x5
0121 50                       push ax
0122 C4 5E 06                 les bx, [bp+0x6]
0125 26 FF 9F D4 00           call far word [es:bx+0xd4]
012A 59                       pop cx
012B 59                       pop cx
012C B8 26 00                 mov ax, 0x26
012F 50                       push ax
0130 B8 06 00                 mov ax, 0x6
0133 50                       push ax
0134 C4 5E 06                 les bx, [bp+0x6]
0137 26 FF 9F D4 00           call far word [es:bx+0xd4]
013C 59                       pop cx
013D 59                       pop cx
013E                          RETURN

Functn1C: "ITEMCENC"
0000                          BEGIN
0003                          ax = HasItem(D1) ? 1 : 0 [es:bx+0x50]
0011 74 2E                    jz 0x41
0013 B8 2C 01                 mov ax, 0x12c
0016 50                       push ax
0017 33 C0                    xor ax, ax
0019 50                       push ax
001A 33 C0                    xor ax, ax
001C 50                       push ax
001D 33 C0                    xor ax, ax
001F 50                       push ax
0020 33 C0                    xor ax, ax
0022 50                       push ax
0023 B8 B5 00                 mov ax, 0xb5
0026 50                       push ax
0027 C4 5E 06                 les bx, [bp+0x6]
002A 26 FF 9F D8 00           call far word [es:bx+0xd8]
002F 83 C4 0C                 add sp, 0xc
0032                          ShowMessage(0A95) = You disturb a nest of Cockatrices.
003F EB 2C                    jmp 0x6d
0041 B8 DC 05                 mov ax, 0x5dc
0044 50                       push ax
0045 33 C0                    xor ax, ax
0047 50                       push ax
0048 33 C0                    xor ax, ax
004A 50                       push ax
004B 33 C0                    xor ax, ax
004D 50                       push ax
004E 33 C0                    xor ax, ax
0050 50                       push ax
0051 B8 D1 00                 mov ax, 0xd1
0054 50                       push ax
0055 C4 5E 06                 les bx, [bp+0x6]
0058 26 FF 9F D8 00           call far word [es:bx+0xd8]
005D 83 C4 0C                 add sp, 0xc
0060                          ShowMessage(0AB8) = You see a vial in a Cockatrice nest.
006D C4 5E 06                 les bx, [bp+0x6]
0070 26 FF 9F F0 00           call far word [es:bx+0xf0]
0075 3D 01 00                 cmp ax, 0x1
0078 74 0D                    jz 0x87
007A C4 5E 06                 les bx, [bp+0x6]
007D 26 FF 9F F0 00           call far word [es:bx+0xf0]
0082 3D 02 00                 cmp ax, 0x2
0085 75 26                    jnz 0xad
0087 B8 08 00                 mov ax, 0x8
008A 50                       push ax
008B B8 01 00                 mov ax, 0x1
008E 50                       push ax
008F C4 5E 06                 les bx, [bp+0x6]
0092 26 FF 9F D4 00           call far word [es:bx+0xd4]
0097 59                       pop cx
0098 59                       pop cx
0099 B8 07 00                 mov ax, 0x7
009C 50                       push ax
009D B8 02 00                 mov ax, 0x2
00A0 50                       push ax
00A1 C4 5E 06                 les bx, [bp+0x6]
00A4 26 FF 9F D4 00           call far word [es:bx+0xd4]
00A9 59                       pop cx
00AA 59                       pop cx
00AB EB 48                    jmp 0xf5
00AD B8 09 00                 mov ax, 0x9
00B0 50                       push ax
00B1 B8 01 00                 mov ax, 0x1
00B4 50                       push ax
00B5 C4 5E 06                 les bx, [bp+0x6]
00B8 26 FF 9F D4 00           call far word [es:bx+0xd4]
00BD 59                       pop cx
00BE 59                       pop cx
00BF B8 09 00                 mov ax, 0x9
00C2 50                       push ax
00C3 B8 02 00                 mov ax, 0x2
00C6 50                       push ax
00C7 C4 5E 06                 les bx, [bp+0x6]
00CA 26 FF 9F D4 00           call far word [es:bx+0xd4]
00CF 59                       pop cx
00D0 59                       pop cx
00D1 B8 0C 00                 mov ax, 0xc
00D4 50                       push ax
00D5 B8 05 00                 mov ax, 0x5
00D8 50                       push ax
00D9 C4 5E 06                 les bx, [bp+0x6]
00DC 26 FF 9F D4 00           call far word [es:bx+0xd4]
00E1 59                       pop cx
00E2 59                       pop cx
00E3 B8 0A 00                 mov ax, 0xa
00E6 50                       push ax
00E7 B8 06 00                 mov ax, 0x6
00EA 50                       push ax
00EB C4 5E 06                 les bx, [bp+0x6]
00EE 26 FF 9F D4 00           call far word [es:bx+0xd4]
00F3 59                       pop cx
00F4 59                       pop cx
00F5                          RETURN

Functn1D: "WEAPAENC"
0000                          BEGIN
0003                          ax = HasItem(2A) ? 1 : 0 [es:bx+0x50]
0011 74 2E                    jz 0x41
0013 B8 2C 01                 mov ax, 0x12c
0016 50                       push ax
0017 33 C0                    xor ax, ax
0019 50                       push ax
001A 33 C0                    xor ax, ax
001C 50                       push ax
001D 33 C0                    xor ax, ax
001F 50                       push ax
0020 33 C0                    xor ax, ax
0022 50                       push ax
0023 B8 BD 00                 mov ax, 0xbd
0026 50                       push ax
0027 C4 5E 06                 les bx, [bp+0x6]
002A 26 FF 9F D8 00           call far word [es:bx+0xd8]
002F 83 C4 0C                 add sp, 0xc
0032                          ShowMessage(0ADD) = Silver Ogres suddenly appear around you.
003F EB 2C                    jmp 0x6d
0041 B8 D0 07                 mov ax, 0x7d0
0044 50                       push ax
0045 33 C0                    xor ax, ax
0047 50                       push ax
0048 33 C0                    xor ax, ax
004A 50                       push ax
004B 33 C0                    xor ax, ax
004D 50                       push ax
004E 33 C0                    xor ax, ax
0050 50                       push ax
0051 B8 2A 00                 mov ax, 0x2a
0054 50                       push ax
0055 C4 5E 06                 les bx, [bp+0x6]
0058 26 FF 9F D8 00           call far word [es:bx+0xd8]
005D 83 C4 0C                 add sp, 0xc
0060                          ShowMessage(0B06) = The lead Silver Ogre wields a powerful morningstar.
006D C4 5E 06                 les bx, [bp+0x6]
0070 26 FF 9F F0 00           call far word [es:bx+0xf0]
0075 3D 01 00                 cmp ax, 0x1
0078 74 0D                    jz 0x87
007A C4 5E 06                 les bx, [bp+0x6]
007D 26 FF 9F F0 00           call far word [es:bx+0xf0]
0082 3D 02 00                 cmp ax, 0x2
0085 75 27                    jnz 0xae
0087 B8 21 00                 mov ax, 0x21
008A 50                       push ax
008B B8 01 00                 mov ax, 0x1
008E 50                       push ax
008F C4 5E 06                 les bx, [bp+0x6]
0092 26 FF 9F D4 00           call far word [es:bx+0xd4]
0097 59                       pop cx
0098 59                       pop cx
0099 B8 22 00                 mov ax, 0x22
009C 50                       push ax
009D B8 02 00                 mov ax, 0x2
00A0 50                       push ax
00A1 C4 5E 06                 les bx, [bp+0x6]
00A4 26 FF 9F D4 00           call far word [es:bx+0xd4]
00A9 59                       pop cx
00AA 59                       pop cx
00AB E9 8D 00                 jmp 0x13b
00AE C4 5E 06                 les bx, [bp+0x6]
00B1 26 FF 9F F0 00           call far word [es:bx+0xf0]
00B6 3D 03 00                 cmp ax, 0x3
00B9 75 38                    jnz 0xf3
00BB B8 21 00                 mov ax, 0x21
00BE 50                       push ax
00BF B8 01 00                 mov ax, 0x1
00C2 50                       push ax
00C3 C4 5E 06                 les bx, [bp+0x6]
00C6 26 FF 9F D4 00           call far word [es:bx+0xd4]
00CB 59                       pop cx
00CC 59                       pop cx
00CD B8 22 00                 mov ax, 0x22
00D0 50                       push ax
00D1 B8 02 00                 mov ax, 0x2
00D4 50                       push ax
00D5 C4 5E 06                 les bx, [bp+0x6]
00D8 26 FF 9F D4 00           call far word [es:bx+0xd4]
00DD 59                       pop cx
00DE 59                       pop cx
00DF B8 23 00                 mov ax, 0x23
00E2 50                       push ax
00E3 B8 03 00                 mov ax, 0x3
00E6 50                       push ax
00E7 C4 5E 06                 les bx, [bp+0x6]
00EA 26 FF 9F D4 00           call far word [es:bx+0xd4]
00EF 59                       pop cx
00F0 59                       pop cx
00F1 EB 48                    jmp 0x13b
00F3 B8 21 00                 mov ax, 0x21
00F6 50                       push ax
00F7 B8 01 00                 mov ax, 0x1
00FA 50                       push ax
00FB C4 5E 06                 les bx, [bp+0x6]
00FE 26 FF 9F D4 00           call far word [es:bx+0xd4]
0103 59                       pop cx
0104 59                       pop cx
0105 B8 22 00                 mov ax, 0x22
0108 50                       push ax
0109 B8 02 00                 mov ax, 0x2
010C 50                       push ax
010D C4 5E 06                 les bx, [bp+0x6]
0110 26 FF 9F D4 00           call far word [es:bx+0xd4]
0115 59                       pop cx
0116 59                       pop cx
0117 B8 23 00                 mov ax, 0x23
011A 50                       push ax
011B B8 03 00                 mov ax, 0x3
011E 50                       push ax
011F C4 5E 06                 les bx, [bp+0x6]
0122 26 FF 9F D4 00           call far word [es:bx+0xd4]
0127 59                       pop cx
0128 59                       pop cx
0129 B8 24 00                 mov ax, 0x24
012C 50                       push ax
012D B8 04 00                 mov ax, 0x4
0130 50                       push ax
0131 C4 5E 06                 les bx, [bp+0x6]
0134 26 FF 9F D4 00           call far word [es:bx+0xd4]
0139 59                       pop cx
013A 59                       pop cx
013B                          RETURN

Functn1E: "WEAPBENC"
0000                          BEGIN
0003                          ax = HasItem(10) ? 1 : 0 [es:bx+0x50]
0011 74 2E                    jz 0x41
0013 B8 2C 01                 mov ax, 0x12c
0016 50                       push ax
0017 33 C0                    xor ax, ax
0019 50                       push ax
001A 33 C0                    xor ax, ax
001C 50                       push ax
001D 33 C0                    xor ax, ax
001F 50                       push ax
0020 33 C0                    xor ax, ax
0022 50                       push ax
0023 B8 CE 00                 mov ax, 0xce
0026 50                       push ax
0027 C4 5E 06                 les bx, [bp+0x6]
002A 26 FF 9F D8 00           call far word [es:bx+0xd8]
002F 83 C4 0C                 add sp, 0xc
0032                          ShowMessage(0B3A) = You disturb some sleeping Giants.
003F EB 2C                    jmp 0x6d
0041 B8 E8 03                 mov ax, 0x3e8
0044 50                       push ax
0045 33 C0                    xor ax, ax
0047 50                       push ax
0048 33 C0                    xor ax, ax
004A 50                       push ax
004B 33 C0                    xor ax, ax
004D 50                       push ax
004E 33 C0                    xor ax, ax
0050 50                       push ax
0051 B8 10 00                 mov ax, 0x10
0054 50                       push ax
0055 C4 5E 06                 les bx, [bp+0x6]
0058 26 FF 9F D8 00           call far word [es:bx+0xd8]
005D 83 C4 0C                 add sp, 0xc
0060                          ShowMessage(0B5C) = A gleaming sword lies on the floor between you and a group of Giants.
006D C4 5E 06                 les bx, [bp+0x6]
0070 26 FF 9F F0 00           call far word [es:bx+0xf0]
0075 3D 01 00                 cmp ax, 0x1
0078 75 15                    jnz 0x8f
007A B8 25 00                 mov ax, 0x25
007D 50                       push ax
007E B8 01 00                 mov ax, 0x1
0081 50                       push ax
0082 C4 5E 06                 les bx, [bp+0x6]
0085 26 FF 9F D4 00           call far word [es:bx+0xd4]
008A 59                       pop cx
008B 59                       pop cx
008C E9 9F 00                 jmp 0x12e
008F C4 5E 06                 les bx, [bp+0x6]
0092 26 FF 9F F0 00           call far word [es:bx+0xf0]
0097 3D 02 00                 cmp ax, 0x2
009A 75 38                    jnz 0xd4
009C B8 25 00                 mov ax, 0x25
009F 50                       push ax
00A0 B8 01 00                 mov ax, 0x1
00A3 50                       push ax
00A4 C4 5E 06                 les bx, [bp+0x6]
00A7 26 FF 9F D4 00           call far word [es:bx+0xd4]
00AC 59                       pop cx
00AD 59                       pop cx
00AE B8 26 00                 mov ax, 0x26
00B1 50                       push ax
00B2 B8 02 00                 mov ax, 0x2
00B5 50                       push ax
00B6 C4 5E 06                 les bx, [bp+0x6]
00B9 26 FF 9F D4 00           call far word [es:bx+0xd4]
00BE 59                       pop cx
00BF 59                       pop cx
00C0 B8 21 00                 mov ax, 0x21
00C3 50                       push ax
00C4 B8 04 00                 mov ax, 0x4
00C7 50                       push ax
00C8 C4 5E 06                 les bx, [bp+0x6]
00CB 26 FF 9F D4 00           call far word [es:bx+0xd4]
00D0 59                       pop cx
00D1 59                       pop cx
00D2 EB 5A                    jmp 0x12e
00D4 B8 25 00                 mov ax, 0x25
00D7 50                       push ax
00D8 B8 01 00                 mov ax, 0x1
00DB 50                       push ax
00DC C4 5E 06                 les bx, [bp+0x6]
00DF 26 FF 9F D4 00           call far word [es:bx+0xd4]
00E4 59                       pop cx
00E5 59                       pop cx
00E6 B8 25 00                 mov ax, 0x25
00E9 50                       push ax
00EA B8 02 00                 mov ax, 0x2
00ED 50                       push ax
00EE C4 5E 06                 les bx, [bp+0x6]
00F1 26 FF 9F D4 00           call far word [es:bx+0xd4]
00F6 59                       pop cx
00F7 59                       pop cx
00F8 B8 26 00                 mov ax, 0x26
00FB 50                       push ax
00FC B8 03 00                 mov ax, 0x3
00FF 50                       push ax
0100 C4 5E 06                 les bx, [bp+0x6]
0103 26 FF 9F D4 00           call far word [es:bx+0xd4]
0108 59                       pop cx
0109 59                       pop cx
010A B8 26 00                 mov ax, 0x26
010D 50                       push ax
010E B8 04 00                 mov ax, 0x4
0111 50                       push ax
0112 C4 5E 06                 les bx, [bp+0x6]
0115 26 FF 9F D4 00           call far word [es:bx+0xd4]
011A 59                       pop cx
011B 59                       pop cx
011C B8 25 00                 mov ax, 0x25
011F 50                       push ax
0120 B8 05 00                 mov ax, 0x5
0123 50                       push ax
0124 C4 5E 06                 les bx, [bp+0x6]
0127 26 FF 9F D4 00           call far word [es:bx+0xd4]
012C 59                       pop cx
012D 59                       pop cx
012E                          RETURN

Functn1F: "ARMRAENC"
0000                          BEGIN
0003                          ax = HasItem(67) ? 1 : 0 [es:bx+0x50]
0011 74 2E                    jz 0x41
0013 B8 F4 01                 mov ax, 0x1f4
0016 50                       push ax
0017 33 C0                    xor ax, ax
0019 50                       push ax
001A 33 C0                    xor ax, ax
001C 50                       push ax
001D 33 C0                    xor ax, ax
001F 50                       push ax
0020 33 C0                    xor ax, ax
0022 50                       push ax
0023 B8 D0 00                 mov ax, 0xd0
0026 50                       push ax
0027 C4 5E 06                 les bx, [bp+0x6]
002A 26 FF 9F D8 00           call far word [es:bx+0xd8]
002F 83 C4 0C                 add sp, 0xc
0032                          ShowMessage(0BA2) = Dark shadows coalesce into Bugbears.
003F EB 2C                    jmp 0x6d
0041 B8 D0 07                 mov ax, 0x7d0
0044 50                       push ax
0045 33 C0                    xor ax, ax
0047 50                       push ax
0048 33 C0                    xor ax, ax
004A 50                       push ax
004B 33 C0                    xor ax, ax
004D 50                       push ax
004E 33 C0                    xor ax, ax
0050 50                       push ax
0051 B8 67 00                 mov ax, 0x67
0054 50                       push ax
0055 C4 5E 06                 les bx, [bp+0x6]
0058 26 FF 9F D8 00           call far word [es:bx+0xd8]
005D 83 C4 0C                 add sp, 0xc
0060                          ShowMessage(0BC7) = A Bugbear guards some chainmail.
006D C4 5E 06                 les bx, [bp+0x6]
0070 26 FF 9F F0 00           call far word [es:bx+0xf0]
0075 3D 01 00                 cmp ax, 0x1
0078 75 27                    jnz 0xa1
007A B8 01 00                 mov ax, 0x1
007D 50                       push ax
007E B8 01 00                 mov ax, 0x1
0081 50                       push ax
0082 C4 5E 06                 les bx, [bp+0x6]
0085 26 FF 9F D4 00           call far word [es:bx+0xd4]
008A 59                       pop cx
008B 59                       pop cx
008C B8 01 00                 mov ax, 0x1
008F 50                       push ax
0090 B8 02 00                 mov ax, 0x2
0093 50                       push ax
0094 C4 5E 06                 les bx, [bp+0x6]
0097 26 FF 9F D4 00           call far word [es:bx+0xd4]
009C 59                       pop cx
009D 59                       pop cx
009E E9 C3 00                 jmp 0x164
00A1 C4 5E 06                 les bx, [bp+0x6]
00A4 26 FF 9F F0 00           call far word [es:bx+0xf0]
00A9 3D 02 00                 cmp ax, 0x2
00AC 75 4A                    jnz 0xf8
00AE B8 02 00                 mov ax, 0x2
00B1 50                       push ax
00B2 B8 01 00                 mov ax, 0x1
00B5 50                       push ax
00B6 C4 5E 06                 les bx, [bp+0x6]
00B9 26 FF 9F D4 00           call far word [es:bx+0xd4]
00BE 59                       pop cx
00BF 59                       pop cx
00C0 B8 02 00                 mov ax, 0x2
00C3 50                       push ax
00C4 B8 02 00                 mov ax, 0x2
00C7 50                       push ax
00C8 C4 5E 06                 les bx, [bp+0x6]
00CB 26 FF 9F D4 00           call far word [es:bx+0xd4]
00D0 59                       pop cx
00D1 59                       pop cx
00D2 B8 03 00                 mov ax, 0x3
00D5 50                       push ax
00D6 B8 03 00                 mov ax, 0x3
00D9 50                       push ax
00DA C4 5E 06                 les bx, [bp+0x6]
00DD 26 FF 9F D4 00           call far word [es:bx+0xd4]
00E2 59                       pop cx
00E3 59                       pop cx
00E4 B8 03 00                 mov ax, 0x3
00E7 50                       push ax
00E8 B8 04 00                 mov ax, 0x4
00EB 50                       push ax
00EC C4 5E 06                 les bx, [bp+0x6]
00EF 26 FF 9F D4 00           call far word [es:bx+0xd4]
00F4 59                       pop cx
00F5 59                       pop cx
00F6 EB 6C                    jmp 0x164
00F8 B8 02 00                 mov ax, 0x2
00FB 50                       push ax
00FC B8 01 00                 mov ax, 0x1
00FF 50                       push ax
0100 C4 5E 06                 les bx, [bp+0x6]
0103 26 FF 9F D4 00           call far word [es:bx+0xd4]
0108 59                       pop cx
0109 59                       pop cx
010A B8 03 00                 mov ax, 0x3
010D 50                       push ax
010E B8 02 00                 mov ax, 0x2
0111 50                       push ax
0112 C4 5E 06                 les bx, [bp+0x6]
0115 26 FF 9F D4 00           call far word [es:bx+0xd4]
011A 59                       pop cx
011B 59                       pop cx
011C B8 03 00                 mov ax, 0x3
011F 50                       push ax
0120 B8 03 00                 mov ax, 0x3
0123 50                       push ax
0124 C4 5E 06                 les bx, [bp+0x6]
0127 26 FF 9F D4 00           call far word [es:bx+0xd4]
012C 59                       pop cx
012D 59                       pop cx
012E B8 02 00                 mov ax, 0x2
0131 50                       push ax
0132 B8 04 00                 mov ax, 0x4
0135 50                       push ax
0136 C4 5E 06                 les bx, [bp+0x6]
0139 26 FF 9F D4 00           call far word [es:bx+0xd4]
013E 59                       pop cx
013F 59                       pop cx
0140 B8 04 00                 mov ax, 0x4
0143 50                       push ax
0144 B8 05 00                 mov ax, 0x5
0147 50                       push ax
0148 C4 5E 06                 les bx, [bp+0x6]
014B 26 FF 9F D4 00           call far word [es:bx+0xd4]
0150 59                       pop cx
0151 59                       pop cx
0152 B8 05 00                 mov ax, 0x5
0155 50                       push ax
0156 B8 06 00                 mov ax, 0x6
0159 50                       push ax
015A C4 5E 06                 les bx, [bp+0x6]
015D 26 FF 9F D4 00           call far word [es:bx+0xd4]
0162 59                       pop cx
0163 59                       pop cx
0164                          RETURN

Functn20: "ARMRBENC"
0000                          BEGIN
0003                          ax = HasItem(7E) ? 1 : 0 [es:bx+0x50]
0011 74 2F                    jz 0x42
0013 B8 20 03                 mov ax, 0x320
0016 50                       push ax
0017 33 C0                    xor ax, ax
0019 50                       push ax
001A 33 C0                    xor ax, ax
001C 50                       push ax
001D 33 C0                    xor ax, ax
001F 50                       push ax
0020 B8 CF 00                 mov ax, 0xcf
0023 50                       push ax
0024 B8 CD 00                 mov ax, 0xcd
0027 50                       push ax
0028 C4 5E 06                 les bx, [bp+0x6]
002B 26 FF 9F D8 00           call far word [es:bx+0xd8]
0030 83 C4 0C                 add sp, 0xc
0033                          ShowMessage(0BE8) = You enter a roosting area for Cockatrices.
0040 EB 2C                    jmp 0x6e
0042 B8 B8 0B                 mov ax, 0xbb8
0045 50                       push ax
0046 33 C0                    xor ax, ax
0048 50                       push ax
0049 33 C0                    xor ax, ax
004B 50                       push ax
004C 33 C0                    xor ax, ax
004E 50                       push ax
004F 33 C0                    xor ax, ax
0051 50                       push ax
0052 B8 7E 00                 mov ax, 0x7e
0055 50                       push ax
0056 C4 5E 06                 les bx, [bp+0x6]
0059 26 FF 9F D8 00           call far word [es:bx+0xd8]
005E 83 C4 0C                 add sp, 0xc
0061                          ShowMessage(0C13) = In a Cockatrice nest you see luminous chainmail.
006E C4 5E 06                 les bx, [bp+0x6]
0071 26 FF 9F F0 00           call far word [es:bx+0xf0]
0076 3D 01 00                 cmp ax, 0x1
0079 74 0D                    jz 0x88
007B C4 5E 06                 les bx, [bp+0x6]
007E 26 FF 9F F0 00           call far word [es:bx+0xf0]
0083 3D 02 00                 cmp ax, 0x2
0086 75 27                    jnz 0xaf
0088 B8 08 00                 mov ax, 0x8
008B 50                       push ax
008C B8 01 00                 mov ax, 0x1
008F 50                       push ax
0090 C4 5E 06                 les bx, [bp+0x6]
0093 26 FF 9F D4 00           call far word [es:bx+0xd4]
0098 59                       pop cx
0099 59                       pop cx
009A B8 07 00                 mov ax, 0x7
009D 50                       push ax
009E B8 02 00                 mov ax, 0x2
00A1 50                       push ax
00A2 C4 5E 06                 les bx, [bp+0x6]
00A5 26 FF 9F D4 00           call far word [es:bx+0xd4]
00AA 59                       pop cx
00AB 59                       pop cx
00AC E9 8D 00                 jmp 0x13c
00AF C4 5E 06                 les bx, [bp+0x6]
00B2 26 FF 9F F0 00           call far word [es:bx+0xf0]
00B7 3D 03 00                 cmp ax, 0x3
00BA 75 38                    jnz 0xf4
00BC B8 07 00                 mov ax, 0x7
00BF 50                       push ax
00C0 B8 01 00                 mov ax, 0x1
00C3 50                       push ax
00C4 C4 5E 06                 les bx, [bp+0x6]
00C7 26 FF 9F D4 00           call far word [es:bx+0xd4]
00CC 59                       pop cx
00CD 59                       pop cx
00CE B8 08 00                 mov ax, 0x8
00D1 50                       push ax
00D2 B8 02 00                 mov ax, 0x2
00D5 50                       push ax
00D6 C4 5E 06                 les bx, [bp+0x6]
00D9 26 FF 9F D4 00           call far word [es:bx+0xd4]
00DE 59                       pop cx
00DF 59                       pop cx
00E0 B8 09 00                 mov ax, 0x9
00E3 50                       push ax
00E4 B8 05 00                 mov ax, 0x5
00E7 50                       push ax
00E8 C4 5E 06                 les bx, [bp+0x6]
00EB 26 FF 9F D4 00           call far word [es:bx+0xd4]
00F0 59                       pop cx
00F1 59                       pop cx
00F2 EB 48                    jmp 0x13c
00F4 B8 08 00                 mov ax, 0x8
00F7 50                       push ax
00F8 B8 01 00                 mov ax, 0x1
00FB 50                       push ax
00FC C4 5E 06                 les bx, [bp+0x6]
00FF 26 FF 9F D4 00           call far word [es:bx+0xd4]
0104 59                       pop cx
0105 59                       pop cx
0106 B8 09 00                 mov ax, 0x9
0109 50                       push ax
010A B8 02 00                 mov ax, 0x2
010D 50                       push ax
010E C4 5E 06                 les bx, [bp+0x6]
0111 26 FF 9F D4 00           call far word [es:bx+0xd4]
0116 59                       pop cx
0117 59                       pop cx
0118 B8 0A 00                 mov ax, 0xa
011B 50                       push ax
011C B8 05 00                 mov ax, 0x5
011F 50                       push ax
0120 C4 5E 06                 les bx, [bp+0x6]
0123 26 FF 9F D4 00           call far word [es:bx+0xd4]
0128 59                       pop cx
0129 59                       pop cx
012A B8 0A 00                 mov ax, 0xa
012D 50                       push ax
012E B8 06 00                 mov ax, 0x6
0131 50                       push ax
0132 C4 5E 06                 les bx, [bp+0x6]
0135 26 FF 9F D4 00           call far word [es:bx+0xd4]
013A 59                       pop cx
013B 59                       pop cx
013C                          RETURN

Functn21: "SHLDAENC"
0000                          BEGIN
0003                          ax = HasItem(59) ? 1 : 0 [es:bx+0x50]
0011 74 2E                    jz 0x41
0013 B8 64 00                 mov ax, 0x64
0016 50                       push ax
0017 33 C0                    xor ax, ax
0019 50                       push ax
001A 33 C0                    xor ax, ax
001C 50                       push ax
001D 33 C0                    xor ax, ax
001F 50                       push ax
0020 33 C0                    xor ax, ax
0022 50                       push ax
0023 B8 C0 00                 mov ax, 0xc0
0026 50                       push ax
0027 C4 5E 06                 les bx, [bp+0x6]
002A 26 FF 9F D8 00           call far word [es:bx+0xd8]
002F 83 C4 0C                 add sp, 0xc
0032                          ShowMessage(0C44) = Dire Wolves encircle you.
003F EB 2C                    jmp 0x6d
0041 B8 E8 03                 mov ax, 0x3e8
0044 50                       push ax
0045 33 C0                    xor ax, ax
0047 50                       push ax
0048 33 C0                    xor ax, ax
004A 50                       push ax
004B 33 C0                    xor ax, ax
004D 50                       push ax
004E 33 C0                    xor ax, ax
0050 50                       push ax
0051 B8 59 00                 mov ax, 0x59
0054 50                       push ax
0055 C4 5E 06                 les bx, [bp+0x6]
0058 26 FF 9F D8 00           call far word [es:bx+0xd8]
005D 83 C4 0C                 add sp, 0xc
0060                          ShowMessage(0C5E) = Dire Wolves seem fascinated by a shiny shield.
006D C4 5E 06                 les bx, [bp+0x6]
0070 26 FF 9F F0 00           call far word [es:bx+0xf0]
0075 3D 01 00                 cmp ax, 0x1
0078 74 0D                    jz 0x87
007A C4 5E 06                 les bx, [bp+0x6]
007D 26 FF 9F F0 00           call far word [es:bx+0xf0]
0082 3D 02 00                 cmp ax, 0x2
0085 75 38                    jnz 0xbf
0087 B8 0E 00                 mov ax, 0xe
008A 50                       push ax
008B B8 01 00                 mov ax, 0x1
008E 50                       push ax
008F C4 5E 06                 les bx, [bp+0x6]
0092 26 FF 9F D4 00           call far word [es:bx+0xd4]
0097 59                       pop cx
0098 59                       pop cx
0099 B8 0D 00                 mov ax, 0xd
009C 50                       push ax
009D B8 02 00                 mov ax, 0x2
00A0 50                       push ax
00A1 C4 5E 06                 les bx, [bp+0x6]
00A4 26 FF 9F D4 00           call far word [es:bx+0xd4]
00A9 59                       pop cx
00AA 59                       pop cx
00AB B8 0F 00                 mov ax, 0xf
00AE 50                       push ax
00AF B8 03 00                 mov ax, 0x3
00B2 50                       push ax
00B3 C4 5E 06                 les bx, [bp+0x6]
00B6 26 FF 9F D4 00           call far word [es:bx+0xd4]
00BB 59                       pop cx
00BC 59                       pop cx
00BD EB 5A                    jmp 0x119
00BF B8 0F 00                 mov ax, 0xf
00C2 50                       push ax
00C3 B8 01 00                 mov ax, 0x1
00C6 50                       push ax
00C7 C4 5E 06                 les bx, [bp+0x6]
00CA 26 FF 9F D4 00           call far word [es:bx+0xd4]
00CF 59                       pop cx
00D0 59                       pop cx
00D1 B8 10 00                 mov ax, 0x10
00D4 50                       push ax
00D5 B8 02 00                 mov ax, 0x2
00D8 50                       push ax
00D9 C4 5E 06                 les bx, [bp+0x6]
00DC 26 FF 9F D4 00           call far word [es:bx+0xd4]
00E1 59                       pop cx
00E2 59                       pop cx
00E3 B8 10 00                 mov ax, 0x10
00E6 50                       push ax
00E7 B8 03 00                 mov ax, 0x3
00EA 50                       push ax
00EB C4 5E 06                 les bx, [bp+0x6]
00EE 26 FF 9F D4 00           call far word [es:bx+0xd4]
00F3 59                       pop cx
00F4 59                       pop cx
00F5 B8 0F 00                 mov ax, 0xf
00F8 50                       push ax
00F9 B8 04 00                 mov ax, 0x4
00FC 50                       push ax
00FD C4 5E 06                 les bx, [bp+0x6]
0100 26 FF 9F D4 00           call far word [es:bx+0xd4]
0105 59                       pop cx
0106 59                       pop cx
0107 B8 11 00                 mov ax, 0x11
010A 50                       push ax
010B B8 05 00                 mov ax, 0x5
010E 50                       push ax
010F C4 5E 06                 les bx, [bp+0x6]
0112 26 FF 9F D4 00           call far word [es:bx+0xd4]
0117 59                       pop cx
0118 59                       pop cx
0119                          RETURN

Functn22: "SLDBENC"
0000                          BEGIN
0003                          ax = HasItem(81) ? 1 : 0 [es:bx+0x50]
0011 74 2E                    jz 0x41
0013 B8 C8 00                 mov ax, 0xc8
0016 50                       push ax
0017 33 C0                    xor ax, ax
0019 50                       push ax
001A 33 C0                    xor ax, ax
001C 50                       push ax
001D 33 C0                    xor ax, ax
001F 50                       push ax
0020 33 C0                    xor ax, ax
0022 50                       push ax
0023 B8 C5 00                 mov ax, 0xc5
0026 50                       push ax
0027 C4 5E 06                 les bx, [bp+0x6]
002A 26 FF 9F D8 00           call far word [es:bx+0xd8]
002F 83 C4 0C                 add sp, 0xc
0032                          ShowMessage(0C8D) = Loud hisses alert you to danger.
003F EB 2C                    jmp 0x6d
0041 B8 84 03                 mov ax, 0x384
0044 50                       push ax
0045 33 C0                    xor ax, ax
0047 50                       push ax
0048 33 C0                    xor ax, ax
004A 50                       push ax
004B 33 C0                    xor ax, ax
004D 50                       push ax
004E 33 C0                    xor ax, ax
0050 50                       push ax
0051 B8 81 00                 mov ax, 0x81
0054 50                       push ax
0055 C4 5E 06                 les bx, [bp+0x6]
0058 26 FF 9F D8 00           call far word [es:bx+0xd8]
005D 83 C4 0C                 add sp, 0xc
0060                          ShowMessage(0CAE) = Lizardites move between you and a piece of armor on the floor.
006D C4 5E 06                 les bx, [bp+0x6]
0070 26 FF 9F F0 00           call far word [es:bx+0xf0]
0075 3D 01 00                 cmp ax, 0x1
0078 74 0D                    jz 0x87
007A C4 5E 06                 les bx, [bp+0x6]
007D 26 FF 9F F0 00           call far word [es:bx+0xf0]
0082 3D 02 00                 cmp ax, 0x2
0085 75 26                    jnz 0xad
0087 B8 27 00                 mov ax, 0x27
008A 50                       push ax
008B B8 01 00                 mov ax, 0x1
008E 50                       push ax
008F C4 5E 06                 les bx, [bp+0x6]
0092 26 FF 9F D4 00           call far word [es:bx+0xd4]
0097 59                       pop cx
0098 59                       pop cx
0099 B8 28 00                 mov ax, 0x28
009C 50                       push ax
009D B8 02 00                 mov ax, 0x2
00A0 50                       push ax
00A1 C4 5E 06                 les bx, [bp+0x6]
00A4 26 FF 9F D4 00           call far word [es:bx+0xd4]
00A9 59                       pop cx
00AA 59                       pop cx
00AB EB 48                    jmp 0xf5
00AD B8 27 00                 mov ax, 0x27
00B0 50                       push ax
00B1 B8 01 00                 mov ax, 0x1
00B4 50                       push ax
00B5 C4 5E 06                 les bx, [bp+0x6]
00B8 26 FF 9F D4 00           call far word [es:bx+0xd4]
00BD 59                       pop cx
00BE 59                       pop cx
00BF B8 27 00                 mov ax, 0x27
00C2 50                       push ax
00C3 B8 02 00                 mov ax, 0x2
00C6 50                       push ax
00C7 C4 5E 06                 les bx, [bp+0x6]
00CA 26 FF 9F D4 00           call far word [es:bx+0xd4]
00CF 59                       pop cx
00D0 59                       pop cx
00D1 B8 28 00                 mov ax, 0x28
00D4 50                       push ax
00D5 B8 03 00                 mov ax, 0x3
00D8 50                       push ax
00D9 C4 5E 06                 les bx, [bp+0x6]
00DC 26 FF 9F D4 00           call far word [es:bx+0xd4]
00E1 59                       pop cx
00E2 59                       pop cx
00E3 B8 28 00                 mov ax, 0x28
00E6 50                       push ax
00E7 B8 04 00                 mov ax, 0x4
00EA 50                       push ax
00EB C4 5E 06                 les bx, [bp+0x6]
00EE 26 FF 9F D4 00           call far word [es:bx+0xd4]
00F3 59                       pop cx
00F4 59                       pop cx
00F5                          RETURN

Functn23: "KINGDOOR"
0000                          BEGIN
0003                          ax = HasItem(F8) ? 1 : 0 [es:bx+0x50]
0011 74 4B                    jz 0x5e
0013                          ShowMessage(0CED) = The door is unlocked.
0020 C4 5E 06                 les bx, [bp+0x6]
0023 26 FF 5F 24              call far word [es:bx+0x24]
0027 50                       push ax
0028 C4 5E 06                 les bx, [bp+0x6]
002B 26 FF 5F 20              call far word [es:bx+0x20]
002F 50                       push ax
0030 B8 01 00                 mov ax, 0x1
0033 50                       push ax
0034 C4 5E 06                 les bx, [bp+0x6]
0037 26 FF 5F 30              call far word [es:bx+0x30]
003B 83 C4 06                 add sp, 0x6
003E B8 01 00                 mov ax, 0x1
0041 50                       push ax
0042 C4 5E 06                 les bx, [bp+0x6]
0045 26 FF 5F 24              call far word [es:bx+0x24]
0049 50                       push ax
004A C4 5E 06                 les bx, [bp+0x6]
004D 26 FF 5F 20              call far word [es:bx+0x20]
0051 50                       push ax
0052 C4 5E 06                 les bx, [bp+0x6]
0055 26 FF 5F 2C              call far word [es:bx+0x2c]
0059 83 C4 06                 add sp, 0x6
005C EB 2A                    jmp 0x88
005E 33 C0                    xor ax, ax
0060 50                       push ax
0061 C4 5E 06                 les bx, [bp+0x6]
0064 26 FF 5F 24              call far word [es:bx+0x24]
0068 50                       push ax
0069 C4 5E 06                 les bx, [bp+0x6]
006C 26 FF 5F 20              call far word [es:bx+0x20]
0070 50                       push ax
0071 C4 5E 06                 les bx, [bp+0x6]
0074 26 FF 5F 2C              call far word [es:bx+0x2c]
0078 83 C4 06                 add sp, 0x6
007B                          ShowMessage(0D03) = The door is sealed shut. You see what appears to be the bas relief of a royal ring 
0088                          RETURN

Functn24: "STRGATEM"
0000                          BEGIN
0003                          ShowMessage(0D57) = The stairs through the north gateway lead up. The gateway to the east leads to THE GREAT CORRIDOR.
0010                          RETURN

Functn25: "STRSMESS"
0000                          BEGIN
0003                          ShowMessage(0DBA) = The stairs past the south gateway lead up a level.
0010                          RETURN

Functn26: "STRSMESS"
0000                          BEGIN
0003                          ShowMessage(0DED) = There are stairs through the the north gateway.
0010                          RETURN

Functn27: "STRSMESS"
0000                          BEGIN
0003                          ShowMessage(0E1D) = There are stairs beyond the west gateway.
0010                          RETURN

Functn29: "NPCCHATA"
0000                          BEGIN
0003                          ShowMessage(0E47) = You encounter a Human Barbarian.
0010                          ShowPortrait(0016)
001D                          UnknownFunction(000F) [es:bx+0xec]
002A 3D 0C 00                 cmp ax, 0xc
002D 77 1C                    ja 0x4b
002F                          ShowMessage(0E68) = The opening and closing of secret doors in this area give me a headache. I simply cannot puzzle out the correct sequence of opening the doors. I wish my map of this area were more complete.
003C                          ShowMessage(0F26) = By the way, if you don't have the king's ring, you won't get anywhere in this crazy place.
0049 EB 0D                    jmp 0x58
004B                          ShowMessage(0F81) = The Human Barbarian pays you no attention as he puzzles over a map.
0058                          RETURN

Functn2A: "NPCCHATB"
0000                          BEGIN
0003                          ShowMessage(0FC5) = You encounter a Gnome Wizard.
0010                          ShowPortrait(002D)
001D                          UnknownFunction(000F) [es:bx+0xec]
002A 3D 0A 00                 cmp ax, 0xa
002D 77 0F                    ja 0x3e
002F                          ShowMessage(0FE3) = Once you find a key in this area, seek the hidden door and follow your destiny. The door appears only when you have the right key. Where it leads I do not know.
003C EB 0D                    jmp 0x4b
003E                          ShowMessage(1084) = The Gnome Wizard is too intent on drawing runes in the dust to talk to you.
004B                          RETURN

Functn2B: "NPCCHATC"
0000                          BEGIN
0003                          ShowMessage(10D0) = You encounter an Orc Knight.
0010                          ShowPortrait(001A)
001D                          UnknownFunction(000F) [es:bx+0xec]
002A 3D 09 00                 cmp ax, 0x9
002D 77 0F                    ja 0x3e
002F                          ShowMessage(10ED) = There are many ways into King Cleowyn's Mausoleum, but few are rewarding. The most direct ways are the most challenging. Do not continue unless you have what the king demands.
003C EB 0D                    jmp 0x4b
003E                          ShowMessage(119D) = The Orc Knight dismisses you as low-level buffoons.
004B                          RETURN

Functn2C: "NPCCHATD"
0000                          BEGIN
0003                          ShowMessage(11D1) = You encounter a Halfling Thief.
0010                          ShowPortrait(0025)
001D                          UnknownFunction(000F) [es:bx+0xec]
002A 3D 08 00                 cmp ax, 0x8
002D 77 0F                    ja 0x3e
002F                          ShowMessage(11F1) = Beneath the king's living quarters is an area known as the Thieves' Maze. Only an experienced thief - or a hero who has a thief's skills - will pick his way through this intricate maze.
003C EB 1F                    jmp 0x5d
003E                          ShowMessage(12AB) = The Halfling Thief steals some gold and runs away.
004B B8 FF FF                 mov ax, 0xffff
004E BA CE FF                 mov dx, 0xffce
0051 50                       push ax
0052 52                       push dx
0053 C4 5E 06                 les bx, [bp+0x6]
0056 26 FF 9F AC 00           call far word [es:bx+0xac]
005B 59                       pop cx
005C 59                       pop cx
005D                          RETURN

03FC: You see a switch on the wall and throw it. You hear the sound of locks opening.
044C: You see a switch on the wall and throw it. You hear the sound of locks opening.
049C: You see a switch on the wall and throw it. You hear the sound of locks opening.
04EC: You see a switch on the wall and throw it. You hear the sound of locks opening.
053C: The door is unlocked.
0552: The door is sealed shut. There is no lock on the outside.
058C: The door is unlocked.
05A2: The door is sealed shut. There is no lock on the outside.
05DC: The door is unlocked.
05F2: The door is sealed shut. There is no lock on the outside.
062C: The door is unlocked.
0642: The door is sealed shut. There is no lock on the outside.
067C: A door appears in the south wall.
069E: Monsters attack you.
06B3: A key dangles from a spider's mandible.
06DB: Silver Ogres spring a trap.
06F7: A Silver Ogre plays with an unusual key.
0720: Lizardites have made this room their home.
074B: A Lizardite holds a key shaped like the rune sign for I.
0784: The tapestry contains runes...
07A3: Take the Crown, Robe and Scepter to the Mausoleum of Cleowyn. Use them in the correct niches to open the true path to the king's tomb.
082A: There are runes on this tapestry...
084E: Go west, but not farthest west, and give the Crown when you can go no more. Go east, but not farthest east, and give the Robe when you can go no more. When Crown and Robe are given, continue to the door of the tomb. Give the Scepter there to be rewarded.
094D: You encounter Bugbears.
0965: Bugbears stand near some gold.
0984: Dire Wolves scratch the floor impatiently.
09AF: A Dire Wolf plays with a coin purse.
09D4: You suddenly feel nervous.
09EF: Hungry lions prowl the area.
0A0C: The floor crawls with Leeches.
0A2B: Leeches swarm over a magic wand.
0A4C: Giants interrupt your search.
0A6A: A Giant wears a medallion around his neck.
0A95: You disturb a nest of Cockatrices.
0AB8: You see a vial in a Cockatrice nest.
0ADD: Silver Ogres suddenly appear around you.
0B06: The lead Silver Ogre wields a powerful morningstar.
0B3A: You disturb some sleeping Giants.
0B5C: A gleaming sword lies on the floor between you and a group of Giants.
0BA2: Dark shadows coalesce into Bugbears.
0BC7: A Bugbear guards some chainmail.
0BE8: You enter a roosting area for Cockatrices.
0C13: In a Cockatrice nest you see luminous chainmail.
0C44: Dire Wolves encircle you.
0C5E: Dire Wolves seem fascinated by a shiny shield.
0C8D: Loud hisses alert you to danger.
0CAE: Lizardites move between you and a piece of armor on the floor.
0CED: The door is unlocked.
0D03: The door is sealed shut. You see what appears to be the bas relief of a royal ring 
0D57: The stairs through the north gateway lead up. The gateway to the east leads to THE GREAT CORRIDOR.
0DBA: The stairs past the south gateway lead up a level.
0DED: There are stairs through the the north gateway.
0E1D: There are stairs beyond the west gateway.
0E47: You encounter a Human Barbarian.
0E68: The opening and closing of secret doors in this area give me a headache. I simply cannot puzzle out the correct sequence of opening the doors. I wish my map of this area were more complete.
0F26: By the way, if you don't have the king's ring, you won't get anywhere in this crazy place.
0F81: The Human Barbarian pays you no attention as he puzzles over a map.
0FC5: You encounter a Gnome Wizard.
0FE3: Once you find a key in this area, seek the hidden door and follow your destiny. The door appears only when you have the right key. Where it leads I do not know.
1084: The Gnome Wizard is too intent on drawing runes in the dust to talk to you.
10D0: You encounter an Orc Knight.
10ED: There are many ways into King Cleowyn's Mausoleum, but few are rewarding. The most direct ways are the most challenging. Do not continue unless you have what the king demands.
119D: The Orc Knight dismisses you as low-level buffoons.
11D1: You encounter a Halfling Thief.
11F1: Beneath the king's living quarters is an area known as the Thieves' Maze. Only an experienced thief - or a hero who has a thief's skills - will pick his way through this intricate maze.
12AB: The Halfling Thief steals some gold and runs away.
