Functn01: "TELEPORT"
0000                          BEGIN
0003                          GoMap(02, DC, 06, 01)
001E                          RETURN

Functn02: "PIT"
0000                          BEGIN
0003 C4 5E 06                 les bx, [bp+0x6]
0006 26 FF 5F 20              call far word [es:bx+0x20]
000A 50                       push ax
000B B8 01 00                 mov ax, 0x1
000E 50                       push ax
000F C4 5E 06                 les bx, [bp+0x6]
0012 26 FF 5F 38              call far word [es:bx+0x38]
0016 59                       pop cx
0017 59                       pop cx
0018                          GoMap(02, E0, 01, 04)
0033                          RETURN

Functn03: "NPCCHATA"
0000                          BEGIN
0003                          ShowMessage(03FC)
0010 B8 28 00                 mov ax, 0x28
0013 50                       push ax
0014 C4 5E 06                 les bx, [bp+0x6]
0017 26 FF 9F FC 00           call far word [es:bx+0xfc]
001C 59                       pop cx
001D B8 0F 00                 mov ax, 0xf
0020 50                       push ax
0021 C4 5E 06                 les bx, [bp+0x6]
0024 26 FF 9F EC 00           call far word [es:bx+0xec]
0029 59                       pop cx
002A 3D 0C 00                 cmp ax, 0xc
002D 77 1C                    ja 0x4b
002F                          ShowMessage(041A)
003C                          ShowMessage(04CC)
0049 EB 0D                    jmp 0x58
004B                          ShowMessage(0574)
0058                          RETURN

Functn04: "NPCCHATB"
0000                          BEGIN
0003                          ShowMessage(05C7)
0010 B8 1E 00                 mov ax, 0x1e
0013 50                       push ax
0014 C4 5E 06                 les bx, [bp+0x6]
0017 26 FF 9F FC 00           call far word [es:bx+0xfc]
001C 59                       pop cx
001D B8 0F 00                 mov ax, 0xf
0020 50                       push ax
0021 C4 5E 06                 les bx, [bp+0x6]
0024 26 FF 9F EC 00           call far word [es:bx+0xec]
0029 59                       pop cx
002A 3D 06 00                 cmp ax, 0x6
002D 77 0F                    ja 0x3e
002F                          ShowMessage(05E4)
003C EB 0D                    jmp 0x4b
003E                          ShowMessage(0667)
004B                          RETURN

Functn05: "NPCCHATC"
0000                          BEGIN
0003                          ShowMessage(069A)
0010 B8 25 00                 mov ax, 0x25
0013 50                       push ax
0014 C4 5E 06                 les bx, [bp+0x6]
0017 26 FF 9F FC 00           call far word [es:bx+0xfc]
001C 59                       pop cx
001D B8 0F 00                 mov ax, 0xf
0020 50                       push ax
0021 C4 5E 06                 les bx, [bp+0x6]
0024 26 FF 9F EC 00           call far word [es:bx+0xec]
0029 59                       pop cx
002A 3D 0A 00                 cmp ax, 0xa
002D 77 1C                    ja 0x4b
002F                          ShowMessage(06BA)
003C                          ShowMessage(073D)
0049 EB 0D                    jmp 0x58
004B                          ShowMessage(0788)
0058                          RETURN

Functn06: "NPCCHATD"
0000                          BEGIN
0003                          ShowMessage(07C2)
0010 B8 19 00                 mov ax, 0x19
0013 50                       push ax
0014 C4 5E 06                 les bx, [bp+0x6]
0017 26 FF 9F FC 00           call far word [es:bx+0xfc]
001C 59                       pop cx
001D B8 0F 00                 mov ax, 0xf
0020 50                       push ax
0021 C4 5E 06                 les bx, [bp+0x6]
0024 26 FF 9F EC 00           call far word [es:bx+0xec]
0029 59                       pop cx
002A 3D 0B 00                 cmp ax, 0xb
002D 77 1C                    ja 0x4b
002F                          ShowMessage(07E3)
003C                          ShowMessage(086F)
0049 EB 0D                    jmp 0x58
004B                          ShowMessage(08BF)
0058                          RETURN

Functn07: "NPCCHATE"
0000                          BEGIN
0003                          ShowMessage(0929)
0010 B8 2C 00                 mov ax, 0x2c
0013 50                       push ax
0014 C4 5E 06                 les bx, [bp+0x6]
0017 26 FF 9F FC 00           call far word [es:bx+0xfc]
001C 59                       pop cx
001D B8 0F 00                 mov ax, 0xf
0020 50                       push ax
0021 C4 5E 06                 les bx, [bp+0x6]
0024 26 FF 9F EC 00           call far word [es:bx+0xec]
0029 59                       pop cx
002A 3D 0C 00                 cmp ax, 0xc
002D 77 0F                    ja 0x3e
002F                          ShowMessage(0947)
003C EB 0D                    jmp 0x4b
003E                          ShowMessage(0A2F)
004B                          RETURN

Functn08: "TELEMESG"
0000                          BEGIN
0003                          ShowMessage(0A69)
0010                          RETURN

Functn09: "ITEMAENC"
0000                          BEGIN
0003 B8 77 00                 mov ax, 0x77
0006 50                       push ax
0007 C4 5E 06                 les bx, [bp+0x6]
000A 26 FF 5F 50              call far word [es:bx+0x50]
000E 59                       pop cx
000F 0B C0                    or ax, ax
0011 74 2E                    jz 0x41
0013 B8 F4 01                 mov ax, 0x1f4
0016 50                       push ax
0017 33 C0                    xor ax, ax
0019 50                       push ax
001A 33 C0                    xor ax, ax
001C 50                       push ax
001D 33 C0                    xor ax, ax
001F 50                       push ax
0020 33 C0                    xor ax, ax
0022 50                       push ax
0023 B8 CE 00                 mov ax, 0xce
0026 50                       push ax
0027 C4 5E 06                 les bx, [bp+0x6]
002A 26 FF 9F D8 00           call far word [es:bx+0xd8]
002F 83 C4 0C                 add sp, 0xc
0032                          ShowMessage(0A8F)
003F EB 2C                    jmp 0x6d
0041 B8 DC 05                 mov ax, 0x5dc
0044 50                       push ax
0045 33 C0                    xor ax, ax
0047 50                       push ax
0048 33 C0                    xor ax, ax
004A 50                       push ax
004B 33 C0                    xor ax, ax
004D 50                       push ax
004E 33 C0                    xor ax, ax
0050 50                       push ax
0051 B8 77 00                 mov ax, 0x77
0054 50                       push ax
0055 C4 5E 06                 les bx, [bp+0x6]
0058 26 FF 9F D8 00           call far word [es:bx+0xd8]
005D 83 C4 0C                 add sp, 0xc
0060                          ShowMessage(0AB3)
006D C4 5E 06                 les bx, [bp+0x6]
0070 26 FF 9F F0 00           call far word [es:bx+0xf0]
0075 3D 01 00                 cmp ax, 0x1
0078 75 27                    jnz 0xa1
007A B8 25 00                 mov ax, 0x25
007D 50                       push ax
007E B8 01 00                 mov ax, 0x1
0081 50                       push ax
0082 C4 5E 06                 les bx, [bp+0x6]
0085 26 FF 9F D4 00           call far word [es:bx+0xd4]
008A 59                       pop cx
008B 59                       pop cx
008C B8 25 00                 mov ax, 0x25
008F 50                       push ax
0090 B8 02 00                 mov ax, 0x2
0093 50                       push ax
0094 C4 5E 06                 les bx, [bp+0x6]
0097 26 FF 9F D4 00           call far word [es:bx+0xd4]
009C 59                       pop cx
009D 59                       pop cx
009E E9 B1 00                 jmp 0x152
00A1 C4 5E 06                 les bx, [bp+0x6]
00A4 26 FF 9F F0 00           call far word [es:bx+0xf0]
00A9 3D 02 00                 cmp ax, 0x2
00AC 75 38                    jnz 0xe6
00AE B8 25 00                 mov ax, 0x25
00B1 50                       push ax
00B2 B8 01 00                 mov ax, 0x1
00B5 50                       push ax
00B6 C4 5E 06                 les bx, [bp+0x6]
00B9 26 FF 9F D4 00           call far word [es:bx+0xd4]
00BE 59                       pop cx
00BF 59                       pop cx
00C0 B8 25 00                 mov ax, 0x25
00C3 50                       push ax
00C4 B8 02 00                 mov ax, 0x2
00C7 50                       push ax
00C8 C4 5E 06                 les bx, [bp+0x6]
00CB 26 FF 9F D4 00           call far word [es:bx+0xd4]
00D0 59                       pop cx
00D1 59                       pop cx
00D2 B8 26 00                 mov ax, 0x26
00D5 50                       push ax
00D6 B8 03 00                 mov ax, 0x3
00D9 50                       push ax
00DA C4 5E 06                 les bx, [bp+0x6]
00DD 26 FF 9F D4 00           call far word [es:bx+0xd4]
00E2 59                       pop cx
00E3 59                       pop cx
00E4 EB 6C                    jmp 0x152
00E6 B8 21 00                 mov ax, 0x21
00E9 50                       push ax
00EA B8 01 00                 mov ax, 0x1
00ED 50                       push ax
00EE C4 5E 06                 les bx, [bp+0x6]
00F1 26 FF 9F D4 00           call far word [es:bx+0xd4]
00F6 59                       pop cx
00F7 59                       pop cx
00F8 B8 21 00                 mov ax, 0x21
00FB 50                       push ax
00FC B8 02 00                 mov ax, 0x2
00FF 50                       push ax
0100 C4 5E 06                 les bx, [bp+0x6]
0103 26 FF 9F D4 00           call far word [es:bx+0xd4]
0108 59                       pop cx
0109 59                       pop cx
010A B8 26 00                 mov ax, 0x26
010D 50                       push ax
010E B8 03 00                 mov ax, 0x3
0111 50                       push ax
0112 C4 5E 06                 les bx, [bp+0x6]
0115 26 FF 9F D4 00           call far word [es:bx+0xd4]
011A 59                       pop cx
011B 59                       pop cx
011C B8 26 00                 mov ax, 0x26
011F 50                       push ax
0120 B8 04 00                 mov ax, 0x4
0123 50                       push ax
0124 C4 5E 06                 les bx, [bp+0x6]
0127 26 FF 9F D4 00           call far word [es:bx+0xd4]
012C 59                       pop cx
012D 59                       pop cx
012E B8 25 00                 mov ax, 0x25
0131 50                       push ax
0132 B8 05 00                 mov ax, 0x5
0135 50                       push ax
0136 C4 5E 06                 les bx, [bp+0x6]
0139 26 FF 9F D4 00           call far word [es:bx+0xd4]
013E 59                       pop cx
013F 59                       pop cx
0140 B8 25 00                 mov ax, 0x25
0143 50                       push ax
0144 B8 06 00                 mov ax, 0x6
0147 50                       push ax
0148 C4 5E 06                 les bx, [bp+0x6]
014B 26 FF 9F D4 00           call far word [es:bx+0xd4]
0150 59                       pop cx
0151 59                       pop cx
0152                          RETURN

Functn0A: "ITEMBENC"
0000                          BEGIN
0003 B8 C1 00                 mov ax, 0xc1
0006 50                       push ax
0007 C4 5E 06                 les bx, [bp+0x6]
000A 26 FF 5F 50              call far word [es:bx+0x50]
000E 59                       pop cx
000F 0B C0                    or ax, ax
0011 74 2E                    jz 0x41
0013 B8 FA 00                 mov ax, 0xfa
0016 50                       push ax
0017 33 C0                    xor ax, ax
0019 50                       push ax
001A 33 C0                    xor ax, ax
001C 50                       push ax
001D 33 C0                    xor ax, ax
001F 50                       push ax
0020 33 C0                    xor ax, ax
0022 50                       push ax
0023 B8 B6 00                 mov ax, 0xb6
0026 50                       push ax
0027 C4 5E 06                 les bx, [bp+0x6]
002A 26 FF 9F D8 00           call far word [es:bx+0xd8]
002F 83 C4 0C                 add sp, 0xc
0032                          ShowMessage(0B04)
003F EB 2C                    jmp 0x6d
0041 B8 E8 03                 mov ax, 0x3e8
0044 50                       push ax
0045 33 C0                    xor ax, ax
0047 50                       push ax
0048 33 C0                    xor ax, ax
004A 50                       push ax
004B 33 C0                    xor ax, ax
004D 50                       push ax
004E 33 C0                    xor ax, ax
0050 50                       push ax
0051 B8 C1 00                 mov ax, 0xc1
0054 50                       push ax
0055 C4 5E 06                 les bx, [bp+0x6]
0058 26 FF 9F D8 00           call far word [es:bx+0xd8]
005D 83 C4 0C                 add sp, 0xc
0060                          ShowMessage(0B2F)
006D C4 5E 06                 les bx, [bp+0x6]
0070 26 FF 9F F0 00           call far word [es:bx+0xf0]
0075 3D 01 00                 cmp ax, 0x1
0078 75 27                    jnz 0xa1
007A B8 19 00                 mov ax, 0x19
007D 50                       push ax
007E B8 01 00                 mov ax, 0x1
0081 50                       push ax
0082 C4 5E 06                 les bx, [bp+0x6]
0085 26 FF 9F D4 00           call far word [es:bx+0xd4]
008A 59                       pop cx
008B 59                       pop cx
008C B8 1B 00                 mov ax, 0x1b
008F 50                       push ax
0090 B8 02 00                 mov ax, 0x2
0093 50                       push ax
0094 C4 5E 06                 les bx, [bp+0x6]
0097 26 FF 9F D4 00           call far word [es:bx+0xd4]
009C 59                       pop cx
009D 59                       pop cx
009E E9 D0 00                 jmp 0x171
00A1 C4 5E 06                 les bx, [bp+0x6]
00A4 26 FF 9F F0 00           call far word [es:bx+0xf0]
00A9 3D 02 00                 cmp ax, 0x2
00AC 74 0D                    jz 0xbb
00AE C4 5E 06                 les bx, [bp+0x6]
00B1 26 FF 9F F0 00           call far word [es:bx+0xf0]
00B6 3D 03 00                 cmp ax, 0x3
00B9 75 4A                    jnz 0x105
00BB B8 19 00                 mov ax, 0x19
00BE 50                       push ax
00BF B8 01 00                 mov ax, 0x1
00C2 50                       push ax
00C3 C4 5E 06                 les bx, [bp+0x6]
00C6 26 FF 9F D4 00           call far word [es:bx+0xd4]
00CB 59                       pop cx
00CC 59                       pop cx
00CD B8 1B 00                 mov ax, 0x1b
00D0 50                       push ax
00D1 B8 02 00                 mov ax, 0x2
00D4 50                       push ax
00D5 C4 5E 06                 les bx, [bp+0x6]
00D8 26 FF 9F D4 00           call far word [es:bx+0xd4]
00DD 59                       pop cx
00DE 59                       pop cx
00DF B8 1B 00                 mov ax, 0x1b
00E2 50                       push ax
00E3 B8 03 00                 mov ax, 0x3
00E6 50                       push ax
00E7 C4 5E 06                 les bx, [bp+0x6]
00EA 26 FF 9F D4 00           call far word [es:bx+0xd4]
00EF 59                       pop cx
00F0 59                       pop cx
00F1 B8 19 00                 mov ax, 0x19
00F4 50                       push ax
00F5 B8 04 00                 mov ax, 0x4
00F8 50                       push ax
00F9 C4 5E 06                 les bx, [bp+0x6]
00FC 26 FF 9F D4 00           call far word [es:bx+0xd4]
0101 59                       pop cx
0102 59                       pop cx
0103 EB 6C                    jmp 0x171
0105 B8 1B 00                 mov ax, 0x1b
0108 50                       push ax
0109 B8 01 00                 mov ax, 0x1
010C 50                       push ax
010D C4 5E 06                 les bx, [bp+0x6]
0110 26 FF 9F D4 00           call far word [es:bx+0xd4]
0115 59                       pop cx
0116 59                       pop cx
0117 B8 1B 00                 mov ax, 0x1b
011A 50                       push ax
011B B8 02 00                 mov ax, 0x2
011E 50                       push ax
011F C4 5E 06                 les bx, [bp+0x6]
0122 26 FF 9F D4 00           call far word [es:bx+0xd4]
0127 59                       pop cx
0128 59                       pop cx
0129 B8 1C 00                 mov ax, 0x1c
012C 50                       push ax
012D B8 03 00                 mov ax, 0x3
0130 50                       push ax
0131 C4 5E 06                 les bx, [bp+0x6]
0134 26 FF 9F D4 00           call far word [es:bx+0xd4]
0139 59                       pop cx
013A 59                       pop cx
013B B8 1C 00                 mov ax, 0x1c
013E 50                       push ax
013F B8 04 00                 mov ax, 0x4
0142 50                       push ax
0143 C4 5E 06                 les bx, [bp+0x6]
0146 26 FF 9F D4 00           call far word [es:bx+0xd4]
014B 59                       pop cx
014C 59                       pop cx
014D B8 1B 00                 mov ax, 0x1b
0150 50                       push ax
0151 B8 05 00                 mov ax, 0x5
0154 50                       push ax
0155 C4 5E 06                 les bx, [bp+0x6]
0158 26 FF 9F D4 00           call far word [es:bx+0xd4]
015D 59                       pop cx
015E 59                       pop cx
015F B8 1B 00                 mov ax, 0x1b
0162 50                       push ax
0163 B8 06 00                 mov ax, 0x6
0166 50                       push ax
0167 C4 5E 06                 les bx, [bp+0x6]
016A 26 FF 9F D4 00           call far word [es:bx+0xd4]
016F 59                       pop cx
0170 59                       pop cx
0171                          RETURN

Functn0B: "ITEMCENC"
0000                          BEGIN
0003 B8 20 00                 mov ax, 0x20
0006 50                       push ax
0007 C4 5E 06                 les bx, [bp+0x6]
000A 26 FF 5F 50              call far word [es:bx+0x50]
000E 59                       pop cx
000F 0B C0                    or ax, ax
0011 74 2E                    jz 0x41
0013 B8 2C 01                 mov ax, 0x12c
0016 50                       push ax
0017 33 C0                    xor ax, ax
0019 50                       push ax
001A 33 C0                    xor ax, ax
001C 50                       push ax
001D 33 C0                    xor ax, ax
001F 50                       push ax
0020 33 C0                    xor ax, ax
0022 50                       push ax
0023 B8 CC 00                 mov ax, 0xcc
0026 50                       push ax
0027 C4 5E 06                 les bx, [bp+0x6]
002A 26 FF 9F D8 00           call far word [es:bx+0xd8]
002F 83 C4 0C                 add sp, 0xc
0032                          ShowMessage(0B7A)
003F EB 2D                    jmp 0x6e
0041 B8 E8 03                 mov ax, 0x3e8
0044 50                       push ax
0045 33 C0                    xor ax, ax
0047 50                       push ax
0048 33 C0                    xor ax, ax
004A 50                       push ax
004B 33 C0                    xor ax, ax
004D 50                       push ax
004E B8 CF 00                 mov ax, 0xcf
0051 50                       push ax
0052 B8 20 00                 mov ax, 0x20
0055 50                       push ax
0056 C4 5E 06                 les bx, [bp+0x6]
0059 26 FF 9F D8 00           call far word [es:bx+0xd8]
005E 83 C4 0C                 add sp, 0xc
0061                          ShowMessage(0B9A)
006E C4 5E 06                 les bx, [bp+0x6]
0071 26 FF 9F F0 00           call far word [es:bx+0xf0]
0076 3D 01 00                 cmp ax, 0x1
0079 75 27                    jnz 0xa2
007B B8 21 00                 mov ax, 0x21
007E 50                       push ax
007F B8 01 00                 mov ax, 0x1
0082 50                       push ax
0083 C4 5E 06                 les bx, [bp+0x6]
0086 26 FF 9F D4 00           call far word [es:bx+0xd4]
008B 59                       pop cx
008C 59                       pop cx
008D B8 21 00                 mov ax, 0x21
0090 50                       push ax
0091 B8 02 00                 mov ax, 0x2
0094 50                       push ax
0095 C4 5E 06                 les bx, [bp+0x6]
0098 26 FF 9F D4 00           call far word [es:bx+0xd4]
009D 59                       pop cx
009E 59                       pop cx
009F E9 CF 00                 jmp 0x171
00A2 C4 5E 06                 les bx, [bp+0x6]
00A5 26 FF 9F F0 00           call far word [es:bx+0xf0]
00AA 3D 02 00                 cmp ax, 0x2
00AD 74 0C                    jz 0xbb
00AF C4 5E 06                 les bx, [bp+0x6]
00B2 26 FF 9F F0 00           call far word [es:bx+0xf0]
00B7 0B C0                    or ax, ax
00B9 74 4A                    jz 0x105
00BB B8 21 00                 mov ax, 0x21
00BE 50                       push ax
00BF B8 01 00                 mov ax, 0x1
00C2 50                       push ax
00C3 C4 5E 06                 les bx, [bp+0x6]
00C6 26 FF 9F D4 00           call far word [es:bx+0xd4]
00CB 59                       pop cx
00CC 59                       pop cx
00CD B8 22 00                 mov ax, 0x22
00D0 50                       push ax
00D1 B8 02 00                 mov ax, 0x2
00D4 50                       push ax
00D5 C4 5E 06                 les bx, [bp+0x6]
00D8 26 FF 9F D4 00           call far word [es:bx+0xd4]
00DD 59                       pop cx
00DE 59                       pop cx
00DF B8 22 00                 mov ax, 0x22
00E2 50                       push ax
00E3 B8 03 00                 mov ax, 0x3
00E6 50                       push ax
00E7 C4 5E 06                 les bx, [bp+0x6]
00EA 26 FF 9F D4 00           call far word [es:bx+0xd4]
00EF 59                       pop cx
00F0 59                       pop cx
00F1 B8 21 00                 mov ax, 0x21
00F4 50                       push ax
00F5 B8 04 00                 mov ax, 0x4
00F8 50                       push ax
00F9 C4 5E 06                 les bx, [bp+0x6]
00FC 26 FF 9F D4 00           call far word [es:bx+0xd4]
0101 59                       pop cx
0102 59                       pop cx
0103 EB 6C                    jmp 0x171
0105 B8 22 00                 mov ax, 0x22
0108 50                       push ax
0109 B8 01 00                 mov ax, 0x1
010C 50                       push ax
010D C4 5E 06                 les bx, [bp+0x6]
0110 26 FF 9F D4 00           call far word [es:bx+0xd4]
0115 59                       pop cx
0116 59                       pop cx
0117 B8 22 00                 mov ax, 0x22
011A 50                       push ax
011B B8 02 00                 mov ax, 0x2
011E 50                       push ax
011F C4 5E 06                 les bx, [bp+0x6]
0122 26 FF 9F D4 00           call far word [es:bx+0xd4]
0127 59                       pop cx
0128 59                       pop cx
0129 B8 22 00                 mov ax, 0x22
012C 50                       push ax
012D B8 03 00                 mov ax, 0x3
0130 50                       push ax
0131 C4 5E 06                 les bx, [bp+0x6]
0134 26 FF 9F D4 00           call far word [es:bx+0xd4]
0139 59                       pop cx
013A 59                       pop cx
013B B8 22 00                 mov ax, 0x22
013E 50                       push ax
013F B8 04 00                 mov ax, 0x4
0142 50                       push ax
0143 C4 5E 06                 les bx, [bp+0x6]
0146 26 FF 9F D4 00           call far word [es:bx+0xd4]
014B 59                       pop cx
014C 59                       pop cx
014D B8 22 00                 mov ax, 0x22
0150 50                       push ax
0151 B8 05 00                 mov ax, 0x5
0154 50                       push ax
0155 C4 5E 06                 les bx, [bp+0x6]
0158 26 FF 9F D4 00           call far word [es:bx+0xd4]
015D 59                       pop cx
015E 59                       pop cx
015F B8 22 00                 mov ax, 0x22
0162 50                       push ax
0163 B8 06 00                 mov ax, 0x6
0166 50                       push ax
0167 C4 5E 06                 les bx, [bp+0x6]
016A 26 FF 9F D4 00           call far word [es:bx+0xd4]
016F 59                       pop cx
0170 59                       pop cx
0171                          RETURN

Functn0C: "ITEMDENC"
0000                          BEGIN
0003 B8 54 00                 mov ax, 0x54
0006 50                       push ax
0007 C4 5E 06                 les bx, [bp+0x6]
000A 26 FF 5F 50              call far word [es:bx+0x50]
000E 59                       pop cx
000F 0B C0                    or ax, ax
0011 74 2E                    jz 0x41
0013 B8 2C 01                 mov ax, 0x12c
0016 50                       push ax
0017 33 C0                    xor ax, ax
0019 50                       push ax
001A 33 C0                    xor ax, ax
001C 50                       push ax
001D 33 C0                    xor ax, ax
001F 50                       push ax
0020 33 C0                    xor ax, ax
0022 50                       push ax
0023 B8 B6 00                 mov ax, 0xb6
0026 50                       push ax
0027 C4 5E 06                 les bx, [bp+0x6]
002A 26 FF 9F D8 00           call far word [es:bx+0xd8]
002F 83 C4 0C                 add sp, 0xc
0032                          ShowMessage(0BDF)
003F EB 2C                    jmp 0x6d
0041 B8 D0 07                 mov ax, 0x7d0
0044 50                       push ax
0045 33 C0                    xor ax, ax
0047 50                       push ax
0048 33 C0                    xor ax, ax
004A 50                       push ax
004B 33 C0                    xor ax, ax
004D 50                       push ax
004E 33 C0                    xor ax, ax
0050 50                       push ax
0051 B8 54 00                 mov ax, 0x54
0054 50                       push ax
0055 C4 5E 06                 les bx, [bp+0x6]
0058 26 FF 9F D8 00           call far word [es:bx+0xd8]
005D 83 C4 0C                 add sp, 0xc
0060                          ShowMessage(0C04)
006D C4 5E 06                 les bx, [bp+0x6]
0070 26 FF 9F F0 00           call far word [es:bx+0xf0]
0075 3D 01 00                 cmp ax, 0x1
0078 74 0D                    jz 0x87
007A C4 5E 06                 les bx, [bp+0x6]
007D 26 FF 9F F0 00           call far word [es:bx+0xf0]
0082 3D 02 00                 cmp ax, 0x2
0085 75 27                    jnz 0xae
0087 B8 27 00                 mov ax, 0x27
008A 50                       push ax
008B B8 01 00                 mov ax, 0x1
008E 50                       push ax
008F C4 5E 06                 les bx, [bp+0x6]
0092 26 FF 9F D4 00           call far word [es:bx+0xd4]
0097 59                       pop cx
0098 59                       pop cx
0099 B8 28 00                 mov ax, 0x28
009C 50                       push ax
009D B8 02 00                 mov ax, 0x2
00A0 50                       push ax
00A1 C4 5E 06                 les bx, [bp+0x6]
00A4 26 FF 9F D4 00           call far word [es:bx+0xd4]
00A9 59                       pop cx
00AA 59                       pop cx
00AB E9 C3 00                 jmp 0x171
00AE C4 5E 06                 les bx, [bp+0x6]
00B1 26 FF 9F F0 00           call far word [es:bx+0xf0]
00B6 3D 03 00                 cmp ax, 0x3
00B9 75 4A                    jnz 0x105
00BB B8 27 00                 mov ax, 0x27
00BE 50                       push ax
00BF B8 01 00                 mov ax, 0x1
00C2 50                       push ax
00C3 C4 5E 06                 les bx, [bp+0x6]
00C6 26 FF 9F D4 00           call far word [es:bx+0xd4]
00CB 59                       pop cx
00CC 59                       pop cx
00CD B8 28 00                 mov ax, 0x28
00D0 50                       push ax
00D1 B8 02 00                 mov ax, 0x2
00D4 50                       push ax
00D5 C4 5E 06                 les bx, [bp+0x6]
00D8 26 FF 9F D4 00           call far word [es:bx+0xd4]
00DD 59                       pop cx
00DE 59                       pop cx
00DF B8 27 00                 mov ax, 0x27
00E2 50                       push ax
00E3 B8 03 00                 mov ax, 0x3
00E6 50                       push ax
00E7 C4 5E 06                 les bx, [bp+0x6]
00EA 26 FF 9F D4 00           call far word [es:bx+0xd4]
00EF 59                       pop cx
00F0 59                       pop cx
00F1 B8 28 00                 mov ax, 0x28
00F4 50                       push ax
00F5 B8 04 00                 mov ax, 0x4
00F8 50                       push ax
00F9 C4 5E 06                 les bx, [bp+0x6]
00FC 26 FF 9F D4 00           call far word [es:bx+0xd4]
0101 59                       pop cx
0102 59                       pop cx
0103 EB 6C                    jmp 0x171
0105 B8 27 00                 mov ax, 0x27
0108 50                       push ax
0109 B8 01 00                 mov ax, 0x1
010C 50                       push ax
010D C4 5E 06                 les bx, [bp+0x6]
0110 26 FF 9F D4 00           call far word [es:bx+0xd4]
0115 59                       pop cx
0116 59                       pop cx
0117 B8 27 00                 mov ax, 0x27
011A 50                       push ax
011B B8 02 00                 mov ax, 0x2
011E 50                       push ax
011F C4 5E 06                 les bx, [bp+0x6]
0122 26 FF 9F D4 00           call far word [es:bx+0xd4]
0127 59                       pop cx
0128 59                       pop cx
0129 B8 27 00                 mov ax, 0x27
012C 50                       push ax
012D B8 03 00                 mov ax, 0x3
0130 50                       push ax
0131 C4 5E 06                 les bx, [bp+0x6]
0134 26 FF 9F D4 00           call far word [es:bx+0xd4]
0139 59                       pop cx
013A 59                       pop cx
013B B8 27 00                 mov ax, 0x27
013E 50                       push ax
013F B8 04 00                 mov ax, 0x4
0142 50                       push ax
0143 C4 5E 06                 les bx, [bp+0x6]
0146 26 FF 9F D4 00           call far word [es:bx+0xd4]
014B 59                       pop cx
014C 59                       pop cx
014D B8 28 00                 mov ax, 0x28
0150 50                       push ax
0151 B8 05 00                 mov ax, 0x5
0154 50                       push ax
0155 C4 5E 06                 les bx, [bp+0x6]
0158 26 FF 9F D4 00           call far word [es:bx+0xd4]
015D 59                       pop cx
015E 59                       pop cx
015F B8 28 00                 mov ax, 0x28
0162 50                       push ax
0163 B8 06 00                 mov ax, 0x6
0166 50                       push ax
0167 C4 5E 06                 les bx, [bp+0x6]
016A 26 FF 9F D4 00           call far word [es:bx+0xd4]
016F 59                       pop cx
0170 59                       pop cx
0171                          RETURN

Functn0D: "STRMNSTR"
0000                          BEGIN
0003 C4 5E 06                 les bx, [bp+0x6]
0006 26 FF 9F F0 00           call far word [es:bx+0xf0]
000B 3D 01 00                 cmp ax, 0x1
000E 74 0D                    jz 0x1d
0010 C4 5E 06                 les bx, [bp+0x6]
0013 26 FF 9F F0 00           call far word [es:bx+0xf0]
0018 3D 02 00                 cmp ax, 0x2
001B 75 39                    jnz 0x56
001D B8 1F 00                 mov ax, 0x1f
0020 50                       push ax
0021 B8 01 00                 mov ax, 0x1
0024 50                       push ax
0025 C4 5E 06                 les bx, [bp+0x6]
0028 26 FF 9F D4 00           call far word [es:bx+0xd4]
002D 59                       pop cx
002E 59                       pop cx
002F B8 1F 00                 mov ax, 0x1f
0032 50                       push ax
0033 B8 02 00                 mov ax, 0x2
0036 50                       push ax
0037 C4 5E 06                 les bx, [bp+0x6]
003A 26 FF 9F D4 00           call far word [es:bx+0xd4]
003F 59                       pop cx
0040 59                       pop cx
0041 B8 1D 00                 mov ax, 0x1d
0044 50                       push ax
0045 B8 03 00                 mov ax, 0x3
0048 50                       push ax
0049 C4 5E 06                 les bx, [bp+0x6]
004C 26 FF 9F D4 00           call far word [es:bx+0xd4]
0051 59                       pop cx
0052 59                       pop cx
0053 E9 D5 00                 jmp 0x12b
0056 C4 5E 06                 les bx, [bp+0x6]
0059 26 FF 9F F0 00           call far word [es:bx+0xf0]
005E 3D 03 00                 cmp ax, 0x3
0061 75 5C                    jnz 0xbf
0063 B8 1E 00                 mov ax, 0x1e
0066 50                       push ax
0067 B8 01 00                 mov ax, 0x1
006A 50                       push ax
006B C4 5E 06                 les bx, [bp+0x6]
006E 26 FF 9F D4 00           call far word [es:bx+0xd4]
0073 59                       pop cx
0074 59                       pop cx
0075 B8 1D 00                 mov ax, 0x1d
0078 50                       push ax
0079 B8 02 00                 mov ax, 0x2
007C 50                       push ax
007D C4 5E 06                 les bx, [bp+0x6]
0080 26 FF 9F D4 00           call far word [es:bx+0xd4]
0085 59                       pop cx
0086 59                       pop cx
0087 B8 1D 00                 mov ax, 0x1d
008A 50                       push ax
008B B8 03 00                 mov ax, 0x3
008E 50                       push ax
008F C4 5E 06                 les bx, [bp+0x6]
0092 26 FF 9F D4 00           call far word [es:bx+0xd4]
0097 59                       pop cx
0098 59                       pop cx
0099 B8 1E 00                 mov ax, 0x1e
009C 50                       push ax
009D B8 04 00                 mov ax, 0x4
00A0 50                       push ax
00A1 C4 5E 06                 les bx, [bp+0x6]
00A4 26 FF 9F D4 00           call far word [es:bx+0xd4]
00A9 59                       pop cx
00AA 59                       pop cx
00AB B8 20 00                 mov ax, 0x20
00AE 50                       push ax
00AF B8 05 00                 mov ax, 0x5
00B2 50                       push ax
00B3 C4 5E 06                 les bx, [bp+0x6]
00B6 26 FF 9F D4 00           call far word [es:bx+0xd4]
00BB 59                       pop cx
00BC 59                       pop cx
00BD EB 6C                    jmp 0x12b
00BF B8 1F 00                 mov ax, 0x1f
00C2 50                       push ax
00C3 B8 01 00                 mov ax, 0x1
00C6 50                       push ax
00C7 C4 5E 06                 les bx, [bp+0x6]
00CA 26 FF 9F D4 00           call far word [es:bx+0xd4]
00CF 59                       pop cx
00D0 59                       pop cx
00D1 B8 1F 00                 mov ax, 0x1f
00D4 50                       push ax
00D5 B8 02 00                 mov ax, 0x2
00D8 50                       push ax
00D9 C4 5E 06                 les bx, [bp+0x6]
00DC 26 FF 9F D4 00           call far word [es:bx+0xd4]
00E1 59                       pop cx
00E2 59                       pop cx
00E3 B8 20 00                 mov ax, 0x20
00E6 50                       push ax
00E7 B8 03 00                 mov ax, 0x3
00EA 50                       push ax
00EB C4 5E 06                 les bx, [bp+0x6]
00EE 26 FF 9F D4 00           call far word [es:bx+0xd4]
00F3 59                       pop cx
00F4 59                       pop cx
00F5 B8 20 00                 mov ax, 0x20
00F8 50                       push ax
00F9 B8 04 00                 mov ax, 0x4
00FC 50                       push ax
00FD C4 5E 06                 les bx, [bp+0x6]
0100 26 FF 9F D4 00           call far word [es:bx+0xd4]
0105 59                       pop cx
0106 59                       pop cx
0107 B8 1E 00                 mov ax, 0x1e
010A 50                       push ax
010B B8 05 00                 mov ax, 0x5
010E 50                       push ax
010F C4 5E 06                 les bx, [bp+0x6]
0112 26 FF 9F D4 00           call far word [es:bx+0xd4]
0117 59                       pop cx
0118 59                       pop cx
0119 B8 1E 00                 mov ax, 0x1e
011C 50                       push ax
011D B8 06 00                 mov ax, 0x6
0120 50                       push ax
0121 C4 5E 06                 les bx, [bp+0x6]
0124 26 FF 9F D4 00           call far word [es:bx+0xd4]
0129 59                       pop cx
012A 59                       pop cx
012B                          RETURN

Functn0E: "AVEMNSTR"
0000                          BEGIN
0003 C4 5E 06                 les bx, [bp+0x6]
0006 26 FF 9F F0 00           call far word [es:bx+0xf0]
000B 3D 01 00                 cmp ax, 0x1
000E 75 27                    jnz 0x37
0010 B8 1A 00                 mov ax, 0x1a
0013 50                       push ax
0014 B8 01 00                 mov ax, 0x1
0017 50                       push ax
0018 C4 5E 06                 les bx, [bp+0x6]
001B 26 FF 9F D4 00           call far word [es:bx+0xd4]
0020 59                       pop cx
0021 59                       pop cx
0022 B8 1B 00                 mov ax, 0x1b
0025 50                       push ax
0026 B8 02 00                 mov ax, 0x2
0029 50                       push ax
002A C4 5E 06                 les bx, [bp+0x6]
002D 26 FF 9F D4 00           call far word [es:bx+0xd4]
0032 59                       pop cx
0033 59                       pop cx
0034 E9 3F 01                 jmp 0x176
0037 C4 5E 06                 les bx, [bp+0x6]
003A 26 FF 9F F0 00           call far word [es:bx+0xf0]
003F 3D 02 00                 cmp ax, 0x2
0042 75 4B                    jnz 0x8f
0044 B8 1B 00                 mov ax, 0x1b
0047 50                       push ax
0048 B8 01 00                 mov ax, 0x1
004B 50                       push ax
004C C4 5E 06                 les bx, [bp+0x6]
004F 26 FF 9F D4 00           call far word [es:bx+0xd4]
0054 59                       pop cx
0055 59                       pop cx
0056 B8 1B 00                 mov ax, 0x1b
0059 50                       push ax
005A B8 02 00                 mov ax, 0x2
005D 50                       push ax
005E C4 5E 06                 les bx, [bp+0x6]
0061 26 FF 9F D4 00           call far word [es:bx+0xd4]
0066 59                       pop cx
0067 59                       pop cx
0068 B8 19 00                 mov ax, 0x19
006B 50                       push ax
006C B8 03 00                 mov ax, 0x3
006F 50                       push ax
0070 C4 5E 06                 les bx, [bp+0x6]
0073 26 FF 9F D4 00           call far word [es:bx+0xd4]
0078 59                       pop cx
0079 59                       pop cx
007A B8 19 00                 mov ax, 0x19
007D 50                       push ax
007E B8 04 00                 mov ax, 0x4
0081 50                       push ax
0082 C4 5E 06                 les bx, [bp+0x6]
0085 26 FF 9F D4 00           call far word [es:bx+0xd4]
008A 59                       pop cx
008B 59                       pop cx
008C E9 E7 00                 jmp 0x176
008F C4 5E 06                 les bx, [bp+0x6]
0092 26 FF 9F F0 00           call far word [es:bx+0xf0]
0097 3D 03 00                 cmp ax, 0x3
009A 75 6E                    jnz 0x10a
009C B8 1B 00                 mov ax, 0x1b
009F 50                       push ax
00A0 B8 01 00                 mov ax, 0x1
00A3 50                       push ax
00A4 C4 5E 06                 les bx, [bp+0x6]
00A7 26 FF 9F D4 00           call far word [es:bx+0xd4]
00AC 59                       pop cx
00AD 59                       pop cx
00AE B8 1B 00                 mov ax, 0x1b
00B1 50                       push ax
00B2 B8 02 00                 mov ax, 0x2
00B5 50                       push ax
00B6 C4 5E 06                 les bx, [bp+0x6]
00B9 26 FF 9F D4 00           call far word [es:bx+0xd4]
00BE 59                       pop cx
00BF 59                       pop cx
00C0 B8 1B 00                 mov ax, 0x1b
00C3 50                       push ax
00C4 B8 03 00                 mov ax, 0x3
00C7 50                       push ax
00C8 C4 5E 06                 les bx, [bp+0x6]
00CB 26 FF 9F D4 00           call far word [es:bx+0xd4]
00D0 59                       pop cx
00D1 59                       pop cx
00D2 B8 1B 00                 mov ax, 0x1b
00D5 50                       push ax
00D6 B8 04 00                 mov ax, 0x4
00D9 50                       push ax
00DA C4 5E 06                 les bx, [bp+0x6]
00DD 26 FF 9F D4 00           call far word [es:bx+0xd4]
00E2 59                       pop cx
00E3 59                       pop cx
00E4 B8 1A 00                 mov ax, 0x1a
00E7 50                       push ax
00E8 B8 05 00                 mov ax, 0x5
00EB 50                       push ax
00EC C4 5E 06                 les bx, [bp+0x6]
00EF 26 FF 9F D4 00           call far word [es:bx+0xd4]
00F4 59                       pop cx
00F5 59                       pop cx
00F6 B8 1A 00                 mov ax, 0x1a
00F9 50                       push ax
00FA B8 06 00                 mov ax, 0x6
00FD 50                       push ax
00FE C4 5E 06                 les bx, [bp+0x6]
0101 26 FF 9F D4 00           call far word [es:bx+0xd4]
0106 59                       pop cx
0107 59                       pop cx
0108 EB 6C                    jmp 0x176
010A B8 1C 00                 mov ax, 0x1c
010D 50                       push ax
010E B8 01 00                 mov ax, 0x1
0111 50                       push ax
0112 C4 5E 06                 les bx, [bp+0x6]
0115 26 FF 9F D4 00           call far word [es:bx+0xd4]
011A 59                       pop cx
011B 59                       pop cx
011C B8 1C 00                 mov ax, 0x1c
011F 50                       push ax
0120 B8 02 00                 mov ax, 0x2
0123 50                       push ax
0124 C4 5E 06                 les bx, [bp+0x6]
0127 26 FF 9F D4 00           call far word [es:bx+0xd4]
012C 59                       pop cx
012D 59                       pop cx
012E B8 1A 00                 mov ax, 0x1a
0131 50                       push ax
0132 B8 03 00                 mov ax, 0x3
0135 50                       push ax
0136 C4 5E 06                 les bx, [bp+0x6]
0139 26 FF 9F D4 00           call far word [es:bx+0xd4]
013E 59                       pop cx
013F 59                       pop cx
0140 B8 1A 00                 mov ax, 0x1a
0143 50                       push ax
0144 B8 04 00                 mov ax, 0x4
0147 50                       push ax
0148 C4 5E 06                 les bx, [bp+0x6]
014B 26 FF 9F D4 00           call far word [es:bx+0xd4]
0150 59                       pop cx
0151 59                       pop cx
0152 B8 1C 00                 mov ax, 0x1c
0155 50                       push ax
0156 B8 05 00                 mov ax, 0x5
0159 50                       push ax
015A C4 5E 06                 les bx, [bp+0x6]
015D 26 FF 9F D4 00           call far word [es:bx+0xd4]
0162 59                       pop cx
0163 59                       pop cx
0164 B8 1C 00                 mov ax, 0x1c
0167 50                       push ax
0168 B8 06 00                 mov ax, 0x6
016B 50                       push ax
016C C4 5E 06                 les bx, [bp+0x6]
016F 26 FF 9F D4 00           call far word [es:bx+0xd4]
0174 59                       pop cx
0175 59                       pop cx
0176                          RETURN

Functn0F: "LKPKDORA"
0000                          BEGIN
0003 B8 C4 00                 mov ax, 0xc4
0006 50                       push ax
0007 B8 BF 00                 mov ax, 0xbf
000A 50                       push ax
000B C4 5E 06                 les bx, [bp+0x6]
000E 26 FF 5F 54              call far word [es:bx+0x54]
0012 59                       pop cx
0013 59                       pop cx
0014 0B C0                    or ax, ax
0016 75 11                    jnz 0x29
0018 B8 0E 00                 mov ax, 0xe
001B 50                       push ax
001C C4 5E 06                 les bx, [bp+0x6]
001F 26 FF 5F 58              call far word [es:bx+0x58]
0023 59                       pop cx
0024 3D 02 00                 cmp ax, 0x2
0027 72 4B                    jb 0x74
0029 B8 01 00                 mov ax, 0x1
002C 50                       push ax
002D C4 5E 06                 les bx, [bp+0x6]
0030 26 FF 5F 24              call far word [es:bx+0x24]
0034 50                       push ax
0035 C4 5E 06                 les bx, [bp+0x6]
0038 26 FF 5F 20              call far word [es:bx+0x20]
003C 50                       push ax
003D C4 5E 06                 les bx, [bp+0x6]
0040 26 FF 5F 2C              call far word [es:bx+0x2c]
0044 83 C4 06                 add sp, 0x6
0047 C4 5E 06                 les bx, [bp+0x6]
004A 26 FF 5F 24              call far word [es:bx+0x24]
004E 50                       push ax
004F C4 5E 06                 les bx, [bp+0x6]
0052 26 FF 5F 20              call far word [es:bx+0x20]
0056 50                       push ax
0057 B8 01 00                 mov ax, 0x1
005A 50                       push ax
005B C4 5E 06                 les bx, [bp+0x6]
005E 26 FF 5F 30              call far word [es:bx+0x30]
0062 83 C4 06                 add sp, 0x6
0065                          ShowMessage(0C37)
0072 EB 2A                    jmp 0x9e
0074 33 C0                    xor ax, ax
0076 50                       push ax
0077 C4 5E 06                 les bx, [bp+0x6]
007A 26 FF 5F 24              call far word [es:bx+0x24]
007E 50                       push ax
007F C4 5E 06                 les bx, [bp+0x6]
0082 26 FF 5F 20              call far word [es:bx+0x20]
0086 50                       push ax
0087 C4 5E 06                 les bx, [bp+0x6]
008A 26 FF 5F 2C              call far word [es:bx+0x2c]
008E 83 C4 06                 add sp, 0x6
0091                          ShowMessage(0C6B)
009E                          RETURN

Functn10: "LKPKDORB"
0000                          BEGIN
0003 B8 C4 00                 mov ax, 0xc4
0006 50                       push ax
0007 B8 C0 00                 mov ax, 0xc0
000A 50                       push ax
000B C4 5E 06                 les bx, [bp+0x6]
000E 26 FF 5F 54              call far word [es:bx+0x54]
0012 59                       pop cx
0013 59                       pop cx
0014 0B C0                    or ax, ax
0016 75 11                    jnz 0x29
0018 B8 0E 00                 mov ax, 0xe
001B 50                       push ax
001C C4 5E 06                 les bx, [bp+0x6]
001F 26 FF 5F 58              call far word [es:bx+0x58]
0023 59                       pop cx
0024 3D 04 00                 cmp ax, 0x4
0027 72 4B                    jb 0x74
0029 B8 01 00                 mov ax, 0x1
002C 50                       push ax
002D C4 5E 06                 les bx, [bp+0x6]
0030 26 FF 5F 24              call far word [es:bx+0x24]
0034 50                       push ax
0035 C4 5E 06                 les bx, [bp+0x6]
0038 26 FF 5F 20              call far word [es:bx+0x20]
003C 50                       push ax
003D C4 5E 06                 les bx, [bp+0x6]
0040 26 FF 5F 2C              call far word [es:bx+0x2c]
0044 83 C4 06                 add sp, 0x6
0047 C4 5E 06                 les bx, [bp+0x6]
004A 26 FF 5F 24              call far word [es:bx+0x24]
004E 50                       push ax
004F C4 5E 06                 les bx, [bp+0x6]
0052 26 FF 5F 20              call far word [es:bx+0x20]
0056 50                       push ax
0057 B8 01 00                 mov ax, 0x1
005A 50                       push ax
005B C4 5E 06                 les bx, [bp+0x6]
005E 26 FF 5F 30              call far word [es:bx+0x30]
0062 83 C4 06                 add sp, 0x6
0065                          ShowMessage(0C7F)
0072 EB 2A                    jmp 0x9e
0074 33 C0                    xor ax, ax
0076 50                       push ax
0077 C4 5E 06                 les bx, [bp+0x6]
007A 26 FF 5F 24              call far word [es:bx+0x24]
007E 50                       push ax
007F C4 5E 06                 les bx, [bp+0x6]
0082 26 FF 5F 20              call far word [es:bx+0x20]
0086 50                       push ax
0087 C4 5E 06                 les bx, [bp+0x6]
008A 26 FF 5F 2C              call far word [es:bx+0x2c]
008E 83 C4 06                 add sp, 0x6
0091                          ShowMessage(0CA1)
009E                          RETURN

Functn11: "LKPKDORC"
0000                          BEGIN
0003 B8 C4 00                 mov ax, 0xc4
0006 50                       push ax
0007 B8 C2 00                 mov ax, 0xc2
000A 50                       push ax
000B C4 5E 06                 les bx, [bp+0x6]
000E 26 FF 5F 54              call far word [es:bx+0x54]
0012 59                       pop cx
0013 59                       pop cx
0014 0B C0                    or ax, ax
0016 75 11                    jnz 0x29
0018 B8 0E 00                 mov ax, 0xe
001B 50                       push ax
001C C4 5E 06                 les bx, [bp+0x6]
001F 26 FF 5F 58              call far word [es:bx+0x58]
0023 59                       pop cx
0024 3D 07 00                 cmp ax, 0x7
0027 72 4B                    jb 0x74
0029 B8 01 00                 mov ax, 0x1
002C 50                       push ax
002D C4 5E 06                 les bx, [bp+0x6]
0030 26 FF 5F 24              call far word [es:bx+0x24]
0034 50                       push ax
0035 C4 5E 06                 les bx, [bp+0x6]
0038 26 FF 5F 20              call far word [es:bx+0x20]
003C 50                       push ax
003D C4 5E 06                 les bx, [bp+0x6]
0040 26 FF 5F 2C              call far word [es:bx+0x2c]
0044 83 C4 06                 add sp, 0x6
0047 C4 5E 06                 les bx, [bp+0x6]
004A 26 FF 5F 24              call far word [es:bx+0x24]
004E 50                       push ax
004F C4 5E 06                 les bx, [bp+0x6]
0052 26 FF 5F 20              call far word [es:bx+0x20]
0056 50                       push ax
0057 B8 01 00                 mov ax, 0x1
005A 50                       push ax
005B C4 5E 06                 les bx, [bp+0x6]
005E 26 FF 5F 30              call far word [es:bx+0x30]
0062 83 C4 06                 add sp, 0x6
0065                          ShowMessage(0CB5)
0072 EB 2A                    jmp 0x9e
0074 33 C0                    xor ax, ax
0076 50                       push ax
0077 C4 5E 06                 les bx, [bp+0x6]
007A 26 FF 5F 24              call far word [es:bx+0x24]
007E 50                       push ax
007F C4 5E 06                 les bx, [bp+0x6]
0082 26 FF 5F 20              call far word [es:bx+0x20]
0086 50                       push ax
0087 C4 5E 06                 les bx, [bp+0x6]
008A 26 FF 5F 2C              call far word [es:bx+0x2c]
008E 83 C4 06                 add sp, 0x6
0091                          ShowMessage(0CE1)
009E                          RETURN

Functn12: "LKPKDORD"
0000                          BEGIN
0003 B8 C4 00                 mov ax, 0xc4
0006 50                       push ax
0007 B8 C3 00                 mov ax, 0xc3
000A 50                       push ax
000B C4 5E 06                 les bx, [bp+0x6]
000E 26 FF 5F 54              call far word [es:bx+0x54]
0012 59                       pop cx
0013 59                       pop cx
0014 0B C0                    or ax, ax
0016 75 11                    jnz 0x29
0018 B8 0E 00                 mov ax, 0xe
001B 50                       push ax
001C C4 5E 06                 les bx, [bp+0x6]
001F 26 FF 5F 58              call far word [es:bx+0x58]
0023 59                       pop cx
0024 3D 09 00                 cmp ax, 0x9
0027 72 4B                    jb 0x74
0029 B8 01 00                 mov ax, 0x1
002C 50                       push ax
002D C4 5E 06                 les bx, [bp+0x6]
0030 26 FF 5F 24              call far word [es:bx+0x24]
0034 50                       push ax
0035 C4 5E 06                 les bx, [bp+0x6]
0038 26 FF 5F 20              call far word [es:bx+0x20]
003C 50                       push ax
003D C4 5E 06                 les bx, [bp+0x6]
0040 26 FF 5F 2C              call far word [es:bx+0x2c]
0044 83 C4 06                 add sp, 0x6
0047 C4 5E 06                 les bx, [bp+0x6]
004A 26 FF 5F 24              call far word [es:bx+0x24]
004E 50                       push ax
004F C4 5E 06                 les bx, [bp+0x6]
0052 26 FF 5F 20              call far word [es:bx+0x20]
0056 50                       push ax
0057 B8 01 00                 mov ax, 0x1
005A 50                       push ax
005B C4 5E 06                 les bx, [bp+0x6]
005E 26 FF 5F 30              call far word [es:bx+0x30]
0062 83 C4 06                 add sp, 0x6
0065                          ShowMessage(0CF5)
0072 EB 2A                    jmp 0x9e
0074 33 C0                    xor ax, ax
0076 50                       push ax
0077 C4 5E 06                 les bx, [bp+0x6]
007A 26 FF 5F 24              call far word [es:bx+0x24]
007E 50                       push ax
007F C4 5E 06                 les bx, [bp+0x6]
0082 26 FF 5F 20              call far word [es:bx+0x20]
0086 50                       push ax
0087 C4 5E 06                 les bx, [bp+0x6]
008A 26 FF 5F 2C              call far word [es:bx+0x2c]
008E 83 C4 06                 add sp, 0x6
0091                          ShowMessage(0D32)
009E                          RETURN

Functn13: "STRNDORA"
0000                          BEGIN
0003 33 C0                    xor ax, ax
0005 50                       push ax
0006 C4 5E 06                 les bx, [bp+0x6]
0009 26 FF 9F A4 00           call far word [es:bx+0xa4]
000E 59                       pop cx
000F 3D 0C 00                 cmp ax, 0xc
0012 72 4B                    jb 0x5f
0014                          ShowMessage(0D46)
0021 B8 01 00                 mov ax, 0x1
0024 50                       push ax
0025 C4 5E 06                 les bx, [bp+0x6]
0028 26 FF 5F 24              call far word [es:bx+0x24]
002C 50                       push ax
002D C4 5E 06                 les bx, [bp+0x6]
0030 26 FF 5F 20              call far word [es:bx+0x20]
0034 50                       push ax
0035 C4 5E 06                 les bx, [bp+0x6]
0038 26 FF 5F 2C              call far word [es:bx+0x2c]
003C 83 C4 06                 add sp, 0x6
003F C4 5E 06                 les bx, [bp+0x6]
0042 26 FF 5F 24              call far word [es:bx+0x24]
0046 50                       push ax
0047 C4 5E 06                 les bx, [bp+0x6]
004A 26 FF 5F 20              call far word [es:bx+0x20]
004E 50                       push ax
004F B8 01 00                 mov ax, 0x1
0052 50                       push ax
0053 C4 5E 06                 les bx, [bp+0x6]
0056 26 FF 5F 30              call far word [es:bx+0x30]
005A 83 C4 06                 add sp, 0x6
005D EB 2A                    jmp 0x89
005F                          ShowMessage(0D69)
006C 33 C0                    xor ax, ax
006E 50                       push ax
006F C4 5E 06                 les bx, [bp+0x6]
0072 26 FF 5F 24              call far word [es:bx+0x24]
0076 50                       push ax
0077 C4 5E 06                 les bx, [bp+0x6]
007A 26 FF 5F 20              call far word [es:bx+0x20]
007E 50                       push ax
007F C4 5E 06                 les bx, [bp+0x6]
0082 26 FF 5F 2C              call far word [es:bx+0x2c]
0086 83 C4 06                 add sp, 0x6
0089                          RETURN

Functn14: "STRDOORB"
0000                          BEGIN
0003 33 C0                    xor ax, ax
0005 50                       push ax
0006 C4 5E 06                 les bx, [bp+0x6]
0009 26 FF 9F A4 00           call far word [es:bx+0xa4]
000E 59                       pop cx
000F 3D 0F 00                 cmp ax, 0xf
0012 72 4B                    jb 0x5f
0014                          ShowMessage(0D81)
0021 C4 5E 06                 les bx, [bp+0x6]
0024 26 FF 5F 24              call far word [es:bx+0x24]
0028 50                       push ax
0029 C4 5E 06                 les bx, [bp+0x6]
002C 26 FF 5F 20              call far word [es:bx+0x20]
0030 50                       push ax
0031 B8 01 00                 mov ax, 0x1
0034 50                       push ax
0035 C4 5E 06                 les bx, [bp+0x6]
0038 26 FF 5F 30              call far word [es:bx+0x30]
003C 83 C4 06                 add sp, 0x6
003F B8 01 00                 mov ax, 0x1
0042 50                       push ax
0043 C4 5E 06                 les bx, [bp+0x6]
0046 26 FF 5F 24              call far word [es:bx+0x24]
004A 50                       push ax
004B C4 5E 06                 les bx, [bp+0x6]
004E 26 FF 5F 20              call far word [es:bx+0x20]
0052 50                       push ax
0053 C4 5E 06                 les bx, [bp+0x6]
0056 26 FF 5F 2C              call far word [es:bx+0x2c]
005A 83 C4 06                 add sp, 0x6
005D EB 2A                    jmp 0x89
005F                          ShowMessage(0DAE)
006C 33 C0                    xor ax, ax
006E 50                       push ax
006F C4 5E 06                 les bx, [bp+0x6]
0072 26 FF 5F 24              call far word [es:bx+0x24]
0076 50                       push ax
0077 C4 5E 06                 les bx, [bp+0x6]
007A 26 FF 5F 20              call far word [es:bx+0x20]
007E 50                       push ax
007F C4 5E 06                 les bx, [bp+0x6]
0082 26 FF 5F 2C              call far word [es:bx+0x2c]
0086 83 C4 06                 add sp, 0x6
0089                          RETURN

Functn15: "STRDOORC"
0000                          BEGIN
0003 33 C0                    xor ax, ax
0005 50                       push ax
0006 C4 5E 06                 les bx, [bp+0x6]
0009 26 FF 9F A4 00           call far word [es:bx+0xa4]
000E 59                       pop cx
000F 3D 11 00                 cmp ax, 0x11
0012 72 4B                    jb 0x5f
0014                          ShowMessage(0DD3)
0021 C4 5E 06                 les bx, [bp+0x6]
0024 26 FF 5F 24              call far word [es:bx+0x24]
0028 50                       push ax
0029 C4 5E 06                 les bx, [bp+0x6]
002C 26 FF 5F 20              call far word [es:bx+0x20]
0030 50                       push ax
0031 B8 01 00                 mov ax, 0x1
0034 50                       push ax
0035 C4 5E 06                 les bx, [bp+0x6]
0038 26 FF 5F 30              call far word [es:bx+0x30]
003C 83 C4 06                 add sp, 0x6
003F B8 01 00                 mov ax, 0x1
0042 50                       push ax
0043 C4 5E 06                 les bx, [bp+0x6]
0046 26 FF 5F 24              call far word [es:bx+0x24]
004A 50                       push ax
004B C4 5E 06                 les bx, [bp+0x6]
004E 26 FF 5F 20              call far word [es:bx+0x20]
0052 50                       push ax
0053 C4 5E 06                 les bx, [bp+0x6]
0056 26 FF 5F 2C              call far word [es:bx+0x2c]
005A 83 C4 06                 add sp, 0x6
005D EB 2A                    jmp 0x89
005F                          ShowMessage(0E01)
006C 33 C0                    xor ax, ax
006E 50                       push ax
006F C4 5E 06                 les bx, [bp+0x6]
0072 26 FF 5F 24              call far word [es:bx+0x24]
0076 50                       push ax
0077 C4 5E 06                 les bx, [bp+0x6]
007A 26 FF 5F 20              call far word [es:bx+0x20]
007E 50                       push ax
007F C4 5E 06                 les bx, [bp+0x6]
0082 26 FF 5F 2C              call far word [es:bx+0x2c]
0086 83 C4 06                 add sp, 0x6
0089                          RETURN

Functn16: "STRDOORD"
0000                          BEGIN
0003 33 C0                    xor ax, ax
0005 50                       push ax
0006 C4 5E 06                 les bx, [bp+0x6]
0009 26 FF 9F A4 00           call far word [es:bx+0xa4]
000E 59                       pop cx
000F 3D 14 00                 cmp ax, 0x14
0012 72 4B                    jb 0x5f
0014                          ShowMessage(0E28)
0021 C4 5E 06                 les bx, [bp+0x6]
0024 26 FF 5F 24              call far word [es:bx+0x24]
0028 50                       push ax
0029 C4 5E 06                 les bx, [bp+0x6]
002C 26 FF 5F 20              call far word [es:bx+0x20]
0030 50                       push ax
0031 B8 01 00                 mov ax, 0x1
0034 50                       push ax
0035 C4 5E 06                 les bx, [bp+0x6]
0038 26 FF 5F 30              call far word [es:bx+0x30]
003C 83 C4 06                 add sp, 0x6
003F B8 01 00                 mov ax, 0x1
0042 50                       push ax
0043 C4 5E 06                 les bx, [bp+0x6]
0046 26 FF 5F 24              call far word [es:bx+0x24]
004A 50                       push ax
004B C4 5E 06                 les bx, [bp+0x6]
004E 26 FF 5F 20              call far word [es:bx+0x20]
0052 50                       push ax
0053 C4 5E 06                 les bx, [bp+0x6]
0056 26 FF 5F 2C              call far word [es:bx+0x2c]
005A 83 C4 06                 add sp, 0x6
005D EB 2A                    jmp 0x89
005F                          ShowMessage(0E57)
006C 33 C0                    xor ax, ax
006E 50                       push ax
006F C4 5E 06                 les bx, [bp+0x6]
0072 26 FF 5F 24              call far word [es:bx+0x24]
0076 50                       push ax
0077 C4 5E 06                 les bx, [bp+0x6]
007A 26 FF 5F 20              call far word [es:bx+0x20]
007E 50                       push ax
007F C4 5E 06                 les bx, [bp+0x6]
0082 26 FF 5F 2C              call far word [es:bx+0x2c]
0086 83 C4 06                 add sp, 0x6
0089                          RETURN

