Functn01: "TELEPORT"
0000                          BEGIN
0003                          GoMap(02, DC, 06, 01) [es:bx+0xbc]
001E                          RETURN

Functn02: "PIT"
0000                          BEGIN
0003 C4 5E 06                 les bx, [bp+0x6]
0006 26 FF 5F 20              call far word [es:bx+0x20]
000A 50                       push ax
000B B8 01 00                 mov ax, 0x1
000E 50                       push ax
000F C4 5E 06                 les bx, [bp+0x6]
0012 26 FF 5F 38              call far word [es:bx+0x38]
0016 59                       pop cx
0017 59                       pop cx
0018                          GoMap(02, E0, 01, 04) [es:bx+0xbc]
0033                          RETURN

Functn03: "NPCCHATA"
0000                          BEGIN
0003                          ShowMessage(03FC) [es:bx+0xf8] = You encounter a Troll Cleric.
0010                          ShowPortrait(0028) [es:bx+0xd4]
001D                          UnknownFunction(000F) [es:bx+0xec]
002A 3D 0C 00                 cmp ax, 0xc
002D 77 1C                    ja 0x4b
002F                          ShowMessage(041A) [es:bx+0xf8] = I have almost despaired of finding a way out of this prison. Yet there must be an exit of some kind - stairs or teleport. The guards must have had some way of leaving this area.
003C                          ShowMessage(04CC) [es:bx+0xf8] = To the east are the guard's living quarters and the interrogation rooms. The 36 prison cells are empty now, except for the resident spirits of those who perished here.
0049 EB 0D                    jmp 0x58
004B                          ShowMessage(0574) [es:bx+0xf8] = The Troll Cleric bounces her head on the floor in frustration. She must be insane.
0058                          RETURN

Functn04: "NPCCHATB"
0000                          BEGIN
0003                          ShowMessage(05C7) [es:bx+0xf8] = You encounter an Orc Ranger.
0010                          ShowPortrait(001E) [es:bx+0xd4]
001D                          UnknownFunction(000F) [es:bx+0xec]
002A 3D 06 00                 cmp ax, 0x6
002D 77 0F                    ja 0x3e
002F                          ShowMessage(05E4) [es:bx+0xf8] = I have heard rumors that some few brave souls have escaped the dungeon. If you can find the Rainbow Bridge, you are near the exit.
003C EB 0D                    jmp 0x4b
003E                          ShowMessage(0667) [es:bx+0xf8] = The Orc Ranger glares at you and refuses to speak.
004B                          RETURN

Functn05: "NPCCHATC"
0000                          BEGIN
0003                          ShowMessage(069A) [es:bx+0xf8] = You encounter a Halfling Thief.
0010                          ShowPortrait(0025) [es:bx+0xd4]
001D                          UnknownFunction(000F) [es:bx+0xec]
002A 3D 0A 00                 cmp ax, 0xa
002D 77 1C                    ja 0x4b
002F                          ShowMessage(06BA) [es:bx+0xf8] = A special challenge awaits the brave. If you dare continue after finding what the guard Deldwinn desires, great rewards await you.
003C                          ShowMessage(073D) [es:bx+0xf8] = Chaos should walk with Chaos and Harmony with Harmony to find the rewards.
0049 EB 0D                    jmp 0x58
004B                          ShowMessage(0788) [es:bx+0xf8] = The Halfling Thief thumbs his nose at you and dashes off.
0058                          RETURN

Functn06: "NPCCHATD"
0000                          BEGIN
0003                          ShowMessage(07C2) [es:bx+0xf8] = You encounter a Gnome Barbarian.
0010                          ShowPortrait(0019) [es:bx+0xd4]
001D                          UnknownFunction(000F) [es:bx+0xec]
002A 3D 0B 00                 cmp ax, 0xb
002D 77 1C                    ja 0x4b
002F                          ShowMessage(07E3) [es:bx+0xf8] = Two wizards have crafted a Challenge for the brave. The Wizards' Challenge is on this level, but you cannot reach it from this prison area.
003C                          ShowMessage(086F) [es:bx+0xf8] = Know that race and Guild must walk together if the Challenge is to be overcome.
0049 EB 0D                    jmp 0x58
004B                          ShowMessage(08BF) [es:bx+0xf8] = The Gnome Barbarian becomes distracted as he tries to twiddle his thumbs and instead gets them entangled.
0058                          RETURN

Functn07: "NPCCHATE"
0000                          BEGIN
0003                          ShowMessage(0929) [es:bx+0xf8] = You encounter a Dwarf Wizard.
0010                          ShowPortrait(002C) [es:bx+0xd4]
001D                          UnknownFunction(000F) [es:bx+0xec]
002A 3D 0C 00                 cmp ax, 0xc
002D 77 0F                    ja 0x3e
002F                          ShowMessage(0947) [es:bx+0xf8] = King Cleowyn built his palace inside this volcano because he hoped to unearth the secrets of the wizard Arnakkian. Many of the stones that form Cleowyn's palace were taken from the wizard's castle. No wonder this dungeon is cursed.
003C EB 0D                    jmp 0x4b
003E                          ShowMessage(0A2F) [es:bx+0xf8] = The Dwarf Wizard smiles kindly, but she refuses to speak.
004B                          RETURN

Functn08: "TELEMESG"
0000                          BEGIN
0003                          ShowMessage(0A69) [es:bx+0xf8] = There is a teleport in the west wall.
0010                          RETURN

Functn09: "ITEMAENC"
0000                          BEGIN
0003                          ax = HasItem(77) ? 1 : 0 [es:bx+0x50]
0011 74 2E                    jz 0x41
0013                          SetTreasureData(01F4, 00, 00, 00, 00, CE) [es:bx+0xd8]
0032                          ShowMessage(0A8F) [es:bx+0xf8] = Incubi haunt the empty prison cell.
003F EB 2C                    jmp 0x6d
0041                          SetTreasureData(05DC, 00, 00, 00, 00, 77) [es:bx+0xd8]
0060                          ShowMessage(0AB3) [es:bx+0xf8] = As you reach for a jacket lying on the floor, you see Incubi appear in the cell.
006D C4 5E 06                 les bx, [bp+0x6]
0070 26 FF 9F F0 00           call far word [es:bx+0xf0]
0075 3D 01 00                 cmp ax, 0x1
0078 75 27                    jnz 0xa1
007A                          SetEncData(25, 01) [es:bx+0xd4]
008C                          SetEncData(25, 02) [es:bx+0xd4]
009E E9 B1 00                 jmp 0x152
00A1 C4 5E 06                 les bx, [bp+0x6]
00A4 26 FF 9F F0 00           call far word [es:bx+0xf0]
00A9 3D 02 00                 cmp ax, 0x2
00AC 75 38                    jnz 0xe6
00AE                          SetEncData(25, 01) [es:bx+0xd4]
00C0                          SetEncData(25, 02) [es:bx+0xd4]
00D2                          SetEncData(26, 03) [es:bx+0xd4]
00E4 EB 6C                    jmp 0x152
00E6                          SetEncData(21, 01) [es:bx+0xd4]
00F8                          SetEncData(21, 02) [es:bx+0xd4]
010A                          SetEncData(26, 03) [es:bx+0xd4]
011C                          SetEncData(26, 04) [es:bx+0xd4]
012E                          SetEncData(25, 05) [es:bx+0xd4]
0140                          SetEncData(25, 06) [es:bx+0xd4]
0152                          RETURN

Functn0A: "ITEMBENC"
0000                          BEGIN
0003                          ax = HasItem(C1) ? 1 : 0 [es:bx+0x50]
0011 74 2E                    jz 0x41
0013                          SetTreasureData(00FA, 00, 00, 00, 00, B6) [es:bx+0xd8]
0032                          ShowMessage(0B04) [es:bx+0xf8] = Leeches and Black Widows live in the cell.
003F EB 2C                    jmp 0x6d
0041                          SetTreasureData(03E8, 00, 00, 00, 00, C1) [es:bx+0xd8]
0060                          ShowMessage(0B2F) [es:bx+0xf8] = Just out of reach behind a mass of Leeches and Black Widows is a lockpick.
006D C4 5E 06                 les bx, [bp+0x6]
0070 26 FF 9F F0 00           call far word [es:bx+0xf0]
0075 3D 01 00                 cmp ax, 0x1
0078 75 27                    jnz 0xa1
007A                          SetEncData(19, 01) [es:bx+0xd4]
008C                          SetEncData(1B, 02) [es:bx+0xd4]
009E E9 D0 00                 jmp 0x171
00A1 C4 5E 06                 les bx, [bp+0x6]
00A4 26 FF 9F F0 00           call far word [es:bx+0xf0]
00A9 3D 02 00                 cmp ax, 0x2
00AC 74 0D                    jz 0xbb
00AE C4 5E 06                 les bx, [bp+0x6]
00B1 26 FF 9F F0 00           call far word [es:bx+0xf0]
00B6 3D 03 00                 cmp ax, 0x3
00B9 75 4A                    jnz 0x105
00BB                          SetEncData(19, 01) [es:bx+0xd4]
00CD                          SetEncData(1B, 02) [es:bx+0xd4]
00DF                          SetEncData(1B, 03) [es:bx+0xd4]
00F1                          SetEncData(19, 04) [es:bx+0xd4]
0103 EB 6C                    jmp 0x171
0105                          SetEncData(1B, 01) [es:bx+0xd4]
0117                          SetEncData(1B, 02) [es:bx+0xd4]
0129                          SetEncData(1C, 03) [es:bx+0xd4]
013B                          SetEncData(1C, 04) [es:bx+0xd4]
014D                          SetEncData(1B, 05) [es:bx+0xd4]
015F                          SetEncData(1B, 06) [es:bx+0xd4]
0171                          RETURN

Functn0B: "ITEMCENC"
0000                          BEGIN
0003                          ax = HasItem(20) ? 1 : 0 [es:bx+0x50]
0011 74 2E                    jz 0x41
0013                          SetTreasureData(012C, 00, 00, 00, 00, CC) [es:bx+0xd8]
0032                          ShowMessage(0B7A) [es:bx+0xf8] = Hell Wolves appear in the cell.
003F EB 2D                    jmp 0x6e
0041                          SetTreasureData(03E8, 00, 00, 00, CF, 20) [es:bx+0xd8]
0061                          ShowMessage(0B9A) [es:bx+0xf8] = A circle of Hell Wolves surrounds you and a mace lying on the floor.
006E C4 5E 06                 les bx, [bp+0x6]
0071 26 FF 9F F0 00           call far word [es:bx+0xf0]
0076 3D 01 00                 cmp ax, 0x1
0079 75 27                    jnz 0xa2
007B                          SetEncData(21, 01) [es:bx+0xd4]
008D                          SetEncData(21, 02) [es:bx+0xd4]
009F E9 CF 00                 jmp 0x171
00A2 C4 5E 06                 les bx, [bp+0x6]
00A5 26 FF 9F F0 00           call far word [es:bx+0xf0]
00AA 3D 02 00                 cmp ax, 0x2
00AD 74 0C                    jz 0xbb
00AF C4 5E 06                 les bx, [bp+0x6]
00B2 26 FF 9F F0 00           call far word [es:bx+0xf0]
00B7 0B C0                    or ax, ax
00B9 74 4A                    jz 0x105
00BB                          SetEncData(21, 01) [es:bx+0xd4]
00CD                          SetEncData(22, 02) [es:bx+0xd4]
00DF                          SetEncData(22, 03) [es:bx+0xd4]
00F1                          SetEncData(21, 04) [es:bx+0xd4]
0103 EB 6C                    jmp 0x171
0105                          SetEncData(22, 01) [es:bx+0xd4]
0117                          SetEncData(22, 02) [es:bx+0xd4]
0129                          SetEncData(22, 03) [es:bx+0xd4]
013B                          SetEncData(22, 04) [es:bx+0xd4]
014D                          SetEncData(22, 05) [es:bx+0xd4]
015F                          SetEncData(22, 06) [es:bx+0xd4]
0171                          RETURN

Functn0C: "ITEMDENC"
0000                          BEGIN
0003                          ax = HasItem(54) ? 1 : 0 [es:bx+0x50]
0011 74 2E                    jz 0x41
0013                          SetTreasureData(012C, 00, 00, 00, 00, B6) [es:bx+0xd8]
0032                          ShowMessage(0BDF) [es:bx+0xf8] = Phantasms creep into the empty cell.
003F EB 2C                    jmp 0x6d
0041                          SetTreasureData(07D0, 00, 00, 00, 00, 54) [es:bx+0xd8]
0060                          ShowMessage(0C04) [es:bx+0xf8] = Spirits of the dead guard their precious treasure.
006D C4 5E 06                 les bx, [bp+0x6]
0070 26 FF 9F F0 00           call far word [es:bx+0xf0]
0075 3D 01 00                 cmp ax, 0x1
0078 74 0D                    jz 0x87
007A C4 5E 06                 les bx, [bp+0x6]
007D 26 FF 9F F0 00           call far word [es:bx+0xf0]
0082 3D 02 00                 cmp ax, 0x2
0085 75 27                    jnz 0xae
0087                          SetEncData(27, 01) [es:bx+0xd4]
0099                          SetEncData(28, 02) [es:bx+0xd4]
00AB E9 C3 00                 jmp 0x171
00AE C4 5E 06                 les bx, [bp+0x6]
00B1 26 FF 9F F0 00           call far word [es:bx+0xf0]
00B6 3D 03 00                 cmp ax, 0x3
00B9 75 4A                    jnz 0x105
00BB                          SetEncData(27, 01) [es:bx+0xd4]
00CD                          SetEncData(28, 02) [es:bx+0xd4]
00DF                          SetEncData(27, 03) [es:bx+0xd4]
00F1                          SetEncData(28, 04) [es:bx+0xd4]
0103 EB 6C                    jmp 0x171
0105                          SetEncData(27, 01) [es:bx+0xd4]
0117                          SetEncData(27, 02) [es:bx+0xd4]
0129                          SetEncData(27, 03) [es:bx+0xd4]
013B                          SetEncData(27, 04) [es:bx+0xd4]
014D                          SetEncData(28, 05) [es:bx+0xd4]
015F                          SetEncData(28, 06) [es:bx+0xd4]
0171                          RETURN

Functn0D: "STRMNSTR"
0000                          BEGIN
0003 C4 5E 06                 les bx, [bp+0x6]
0006 26 FF 9F F0 00           call far word [es:bx+0xf0]
000B 3D 01 00                 cmp ax, 0x1
000E 74 0D                    jz 0x1d
0010 C4 5E 06                 les bx, [bp+0x6]
0013 26 FF 9F F0 00           call far word [es:bx+0xf0]
0018 3D 02 00                 cmp ax, 0x2
001B 75 39                    jnz 0x56
001D                          SetEncData(1F, 01) [es:bx+0xd4]
002F                          SetEncData(1F, 02) [es:bx+0xd4]
0041                          SetEncData(1D, 03) [es:bx+0xd4]
0053 E9 D5 00                 jmp 0x12b
0056 C4 5E 06                 les bx, [bp+0x6]
0059 26 FF 9F F0 00           call far word [es:bx+0xf0]
005E 3D 03 00                 cmp ax, 0x3
0061 75 5C                    jnz 0xbf
0063                          SetEncData(1E, 01) [es:bx+0xd4]
0075                          SetEncData(1D, 02) [es:bx+0xd4]
0087                          SetEncData(1D, 03) [es:bx+0xd4]
0099                          SetEncData(1E, 04) [es:bx+0xd4]
00AB                          SetEncData(20, 05) [es:bx+0xd4]
00BD EB 6C                    jmp 0x12b
00BF                          SetEncData(1F, 01) [es:bx+0xd4]
00D1                          SetEncData(1F, 02) [es:bx+0xd4]
00E3                          SetEncData(20, 03) [es:bx+0xd4]
00F5                          SetEncData(20, 04) [es:bx+0xd4]
0107                          SetEncData(1E, 05) [es:bx+0xd4]
0119                          SetEncData(1E, 06) [es:bx+0xd4]
012B                          RETURN

Functn0E: "AVEMNSTR"
0000                          BEGIN
0003 C4 5E 06                 les bx, [bp+0x6]
0006 26 FF 9F F0 00           call far word [es:bx+0xf0]
000B 3D 01 00                 cmp ax, 0x1
000E 75 27                    jnz 0x37
0010                          SetEncData(1A, 01) [es:bx+0xd4]
0022                          SetEncData(1B, 02) [es:bx+0xd4]
0034 E9 3F 01                 jmp 0x176
0037 C4 5E 06                 les bx, [bp+0x6]
003A 26 FF 9F F0 00           call far word [es:bx+0xf0]
003F 3D 02 00                 cmp ax, 0x2
0042 75 4B                    jnz 0x8f
0044                          SetEncData(1B, 01) [es:bx+0xd4]
0056                          SetEncData(1B, 02) [es:bx+0xd4]
0068                          SetEncData(19, 03) [es:bx+0xd4]
007A                          SetEncData(19, 04) [es:bx+0xd4]
008C E9 E7 00                 jmp 0x176
008F C4 5E 06                 les bx, [bp+0x6]
0092 26 FF 9F F0 00           call far word [es:bx+0xf0]
0097 3D 03 00                 cmp ax, 0x3
009A 75 6E                    jnz 0x10a
009C                          SetEncData(1B, 01) [es:bx+0xd4]
00AE                          SetEncData(1B, 02) [es:bx+0xd4]
00C0                          SetEncData(1B, 03) [es:bx+0xd4]
00D2                          SetEncData(1B, 04) [es:bx+0xd4]
00E4                          SetEncData(1A, 05) [es:bx+0xd4]
00F6                          SetEncData(1A, 06) [es:bx+0xd4]
0108 EB 6C                    jmp 0x176
010A                          SetEncData(1C, 01) [es:bx+0xd4]
011C                          SetEncData(1C, 02) [es:bx+0xd4]
012E                          SetEncData(1A, 03) [es:bx+0xd4]
0140                          SetEncData(1A, 04) [es:bx+0xd4]
0152                          SetEncData(1C, 05) [es:bx+0xd4]
0164                          SetEncData(1C, 06) [es:bx+0xd4]
0176                          RETURN

Functn0F: "LKPKDORA"
0000                          BEGIN
0003 B8 C4 00                 mov ax, 0xc4
0006 50                       push ax
0007 B8 BF 00                 mov ax, 0xbf
000A 50                       push ax
000B C4 5E 06                 les bx, [bp+0x6]
000E 26 FF 5F 54              call far word [es:bx+0x54]
0012 59                       pop cx
0013 59                       pop cx
0014 0B C0                    or ax, ax
0016 75 11                    jnz 0x29
0018 B8 0E 00                 mov ax, 0xe
001B 50                       push ax
001C C4 5E 06                 les bx, [bp+0x6]
001F 26 FF 5F 58              call far word [es:bx+0x58]
0023 59                       pop cx
0024 3D 02 00                 cmp ax, 0x2
0027 72 4B                    jb 0x74
0029 B8 01 00                 mov ax, 0x1
002C 50                       push ax
002D C4 5E 06                 les bx, [bp+0x6]
0030 26 FF 5F 24              call far word [es:bx+0x24]
0034 50                       push ax
0035 C4 5E 06                 les bx, [bp+0x6]
0038 26 FF 5F 20              call far word [es:bx+0x20]
003C 50                       push ax
003D C4 5E 06                 les bx, [bp+0x6]
0040 26 FF 5F 2C              call far word [es:bx+0x2c]
0044 83 C4 06                 add sp, 0x6
0047 C4 5E 06                 les bx, [bp+0x6]
004A 26 FF 5F 24              call far word [es:bx+0x24]
004E 50                       push ax
004F C4 5E 06                 les bx, [bp+0x6]
0052 26 FF 5F 20              call far word [es:bx+0x20]
0056 50                       push ax
0057 B8 01 00                 mov ax, 0x1
005A 50                       push ax
005B C4 5E 06                 les bx, [bp+0x6]
005E 26 FF 5F 30              call far word [es:bx+0x30]
0062 83 C4 06                 add sp, 0x6
0065                          ShowMessage(0C37) [es:bx+0xf8] = Your skill at picking locks soon has the door open.
0072 EB 2A                    jmp 0x9e
0074 33 C0                    xor ax, ax
0076 50                       push ax
0077 C4 5E 06                 les bx, [bp+0x6]
007A 26 FF 5F 24              call far word [es:bx+0x24]
007E 50                       push ax
007F C4 5E 06                 les bx, [bp+0x6]
0082 26 FF 5F 20              call far word [es:bx+0x20]
0086 50                       push ax
0087 C4 5E 06                 les bx, [bp+0x6]
008A 26 FF 5F 2C              call far word [es:bx+0x2c]
008E 83 C4 06                 add sp, 0x6
0091                          ShowMessage(0C6B) [es:bx+0xf8] = The door is locked.
009E                          RETURN

Functn10: "LKPKDORB"
0000                          BEGIN
0003 B8 C4 00                 mov ax, 0xc4
0006 50                       push ax
0007 B8 C0 00                 mov ax, 0xc0
000A 50                       push ax
000B C4 5E 06                 les bx, [bp+0x6]
000E 26 FF 5F 54              call far word [es:bx+0x54]
0012 59                       pop cx
0013 59                       pop cx
0014 0B C0                    or ax, ax
0016 75 11                    jnz 0x29
0018 B8 0E 00                 mov ax, 0xe
001B 50                       push ax
001C C4 5E 06                 les bx, [bp+0x6]
001F 26 FF 5F 58              call far word [es:bx+0x58]
0023 59                       pop cx
0024 3D 04 00                 cmp ax, 0x4
0027 72 4B                    jb 0x74
0029 B8 01 00                 mov ax, 0x1
002C 50                       push ax
002D C4 5E 06                 les bx, [bp+0x6]
0030 26 FF 5F 24              call far word [es:bx+0x24]
0034 50                       push ax
0035 C4 5E 06                 les bx, [bp+0x6]
0038 26 FF 5F 20              call far word [es:bx+0x20]
003C 50                       push ax
003D C4 5E 06                 les bx, [bp+0x6]
0040 26 FF 5F 2C              call far word [es:bx+0x2c]
0044 83 C4 06                 add sp, 0x6
0047 C4 5E 06                 les bx, [bp+0x6]
004A 26 FF 5F 24              call far word [es:bx+0x24]
004E 50                       push ax
004F C4 5E 06                 les bx, [bp+0x6]
0052 26 FF 5F 20              call far word [es:bx+0x20]
0056 50                       push ax
0057 B8 01 00                 mov ax, 0x1
005A 50                       push ax
005B C4 5E 06                 les bx, [bp+0x6]
005E 26 FF 5F 30              call far word [es:bx+0x30]
0062 83 C4 06                 add sp, 0x6
0065                          ShowMessage(0C7F) [es:bx+0xf8] = The lock of the door clicks open.
0072 EB 2A                    jmp 0x9e
0074 33 C0                    xor ax, ax
0076 50                       push ax
0077 C4 5E 06                 les bx, [bp+0x6]
007A 26 FF 5F 24              call far word [es:bx+0x24]
007E 50                       push ax
007F C4 5E 06                 les bx, [bp+0x6]
0082 26 FF 5F 20              call far word [es:bx+0x20]
0086 50                       push ax
0087 C4 5E 06                 les bx, [bp+0x6]
008A 26 FF 5F 2C              call far word [es:bx+0x2c]
008E 83 C4 06                 add sp, 0x6
0091                          ShowMessage(0CA1) [es:bx+0xf8] = The door is locked.
009E                          RETURN

Functn11: "LKPKDORC"
0000                          BEGIN
0003 B8 C4 00                 mov ax, 0xc4
0006 50                       push ax
0007 B8 C2 00                 mov ax, 0xc2
000A 50                       push ax
000B C4 5E 06                 les bx, [bp+0x6]
000E 26 FF 5F 54              call far word [es:bx+0x54]
0012 59                       pop cx
0013 59                       pop cx
0014 0B C0                    or ax, ax
0016 75 11                    jnz 0x29
0018 B8 0E 00                 mov ax, 0xe
001B 50                       push ax
001C C4 5E 06                 les bx, [bp+0x6]
001F 26 FF 5F 58              call far word [es:bx+0x58]
0023 59                       pop cx
0024 3D 07 00                 cmp ax, 0x7
0027 72 4B                    jb 0x74
0029 B8 01 00                 mov ax, 0x1
002C 50                       push ax
002D C4 5E 06                 les bx, [bp+0x6]
0030 26 FF 5F 24              call far word [es:bx+0x24]
0034 50                       push ax
0035 C4 5E 06                 les bx, [bp+0x6]
0038 26 FF 5F 20              call far word [es:bx+0x20]
003C 50                       push ax
003D C4 5E 06                 les bx, [bp+0x6]
0040 26 FF 5F 2C              call far word [es:bx+0x2c]
0044 83 C4 06                 add sp, 0x6
0047 C4 5E 06                 les bx, [bp+0x6]
004A 26 FF 5F 24              call far word [es:bx+0x24]
004E 50                       push ax
004F C4 5E 06                 les bx, [bp+0x6]
0052 26 FF 5F 20              call far word [es:bx+0x20]
0056 50                       push ax
0057 B8 01 00                 mov ax, 0x1
005A 50                       push ax
005B C4 5E 06                 les bx, [bp+0x6]
005E 26 FF 5F 30              call far word [es:bx+0x30]
0062 83 C4 06                 add sp, 0x6
0065                          ShowMessage(0CB5) [es:bx+0xf8] = You successfully pick the lock of the door.
0072 EB 2A                    jmp 0x9e
0074 33 C0                    xor ax, ax
0076 50                       push ax
0077 C4 5E 06                 les bx, [bp+0x6]
007A 26 FF 5F 24              call far word [es:bx+0x24]
007E 50                       push ax
007F C4 5E 06                 les bx, [bp+0x6]
0082 26 FF 5F 20              call far word [es:bx+0x20]
0086 50                       push ax
0087 C4 5E 06                 les bx, [bp+0x6]
008A 26 FF 5F 2C              call far word [es:bx+0x2c]
008E 83 C4 06                 add sp, 0x6
0091                          ShowMessage(0CE1) [es:bx+0xf8] = The door is locked.
009E                          RETURN

Functn12: "LKPKDORD"
0000                          BEGIN
0003 B8 C4 00                 mov ax, 0xc4
0006 50                       push ax
0007 B8 C3 00                 mov ax, 0xc3
000A 50                       push ax
000B C4 5E 06                 les bx, [bp+0x6]
000E 26 FF 5F 54              call far word [es:bx+0x54]
0012 59                       pop cx
0013 59                       pop cx
0014 0B C0                    or ax, ax
0016 75 11                    jnz 0x29
0018 B8 0E 00                 mov ax, 0xe
001B 50                       push ax
001C C4 5E 06                 les bx, [bp+0x6]
001F 26 FF 5F 58              call far word [es:bx+0x58]
0023 59                       pop cx
0024 3D 09 00                 cmp ax, 0x9
0027 72 4B                    jb 0x74
0029 B8 01 00                 mov ax, 0x1
002C 50                       push ax
002D C4 5E 06                 les bx, [bp+0x6]
0030 26 FF 5F 24              call far word [es:bx+0x24]
0034 50                       push ax
0035 C4 5E 06                 les bx, [bp+0x6]
0038 26 FF 5F 20              call far word [es:bx+0x20]
003C 50                       push ax
003D C4 5E 06                 les bx, [bp+0x6]
0040 26 FF 5F 2C              call far word [es:bx+0x2c]
0044 83 C4 06                 add sp, 0x6
0047 C4 5E 06                 les bx, [bp+0x6]
004A 26 FF 5F 24              call far word [es:bx+0x24]
004E 50                       push ax
004F C4 5E 06                 les bx, [bp+0x6]
0052 26 FF 5F 20              call far word [es:bx+0x20]
0056 50                       push ax
0057 B8 01 00                 mov ax, 0x1
005A 50                       push ax
005B C4 5E 06                 les bx, [bp+0x6]
005E 26 FF 5F 30              call far word [es:bx+0x30]
0062 83 C4 06                 add sp, 0x6
0065                          ShowMessage(0CF5) [es:bx+0xf8] = The lock of the door is quickly opened by your skillfulness.
0072 EB 2A                    jmp 0x9e
0074 33 C0                    xor ax, ax
0076 50                       push ax
0077 C4 5E 06                 les bx, [bp+0x6]
007A 26 FF 5F 24              call far word [es:bx+0x24]
007E 50                       push ax
007F C4 5E 06                 les bx, [bp+0x6]
0082 26 FF 5F 20              call far word [es:bx+0x20]
0086 50                       push ax
0087 C4 5E 06                 les bx, [bp+0x6]
008A 26 FF 5F 2C              call far word [es:bx+0x2c]
008E 83 C4 06                 add sp, 0x6
0091                          ShowMessage(0D32) [es:bx+0xf8] = The door is locked.
009E                          RETURN

Functn13: "STRNDORA"
0000                          BEGIN
0003 33 C0                    xor ax, ax
0005 50                       push ax
0006 C4 5E 06                 les bx, [bp+0x6]
0009 26 FF 9F A4 00           call far word [es:bx+0xa4]
000E 59                       pop cx
000F 3D 0C 00                 cmp ax, 0xc
0012 72 4B                    jb 0x5f
0014                          ShowMessage(0D46) [es:bx+0xf8] = You manage to force the door open.
0021 B8 01 00                 mov ax, 0x1
0024 50                       push ax
0025 C4 5E 06                 les bx, [bp+0x6]
0028 26 FF 5F 24              call far word [es:bx+0x24]
002C 50                       push ax
002D C4 5E 06                 les bx, [bp+0x6]
0030 26 FF 5F 20              call far word [es:bx+0x20]
0034 50                       push ax
0035 C4 5E 06                 les bx, [bp+0x6]
0038 26 FF 5F 2C              call far word [es:bx+0x2c]
003C 83 C4 06                 add sp, 0x6
003F C4 5E 06                 les bx, [bp+0x6]
0042 26 FF 5F 24              call far word [es:bx+0x24]
0046 50                       push ax
0047 C4 5E 06                 les bx, [bp+0x6]
004A 26 FF 5F 20              call far word [es:bx+0x20]
004E 50                       push ax
004F B8 01 00                 mov ax, 0x1
0052 50                       push ax
0053 C4 5E 06                 les bx, [bp+0x6]
0056 26 FF 5F 30              call far word [es:bx+0x30]
005A 83 C4 06                 add sp, 0x6
005D EB 2A                    jmp 0x89
005F                          ShowMessage(0D69) [es:bx+0xf8] = The door is stuck shut.
006C 33 C0                    xor ax, ax
006E 50                       push ax
006F C4 5E 06                 les bx, [bp+0x6]
0072 26 FF 5F 24              call far word [es:bx+0x24]
0076 50                       push ax
0077 C4 5E 06                 les bx, [bp+0x6]
007A 26 FF 5F 20              call far word [es:bx+0x20]
007E 50                       push ax
007F C4 5E 06                 les bx, [bp+0x6]
0082 26 FF 5F 2C              call far word [es:bx+0x2c]
0086 83 C4 06                 add sp, 0x6
0089                          RETURN

Functn14: "STRDOORB"
0000                          BEGIN
0003 33 C0                    xor ax, ax
0005 50                       push ax
0006 C4 5E 06                 les bx, [bp+0x6]
0009 26 FF 9F A4 00           call far word [es:bx+0xa4]
000E 59                       pop cx
000F 3D 0F 00                 cmp ax, 0xf
0012 72 4B                    jb 0x5f
0014                          ShowMessage(0D81) [es:bx+0xf8] = The door flies open as you smash against it.
0021 C4 5E 06                 les bx, [bp+0x6]
0024 26 FF 5F 24              call far word [es:bx+0x24]
0028 50                       push ax
0029 C4 5E 06                 les bx, [bp+0x6]
002C 26 FF 5F 20              call far word [es:bx+0x20]
0030 50                       push ax
0031 B8 01 00                 mov ax, 0x1
0034 50                       push ax
0035 C4 5E 06                 les bx, [bp+0x6]
0038 26 FF 5F 30              call far word [es:bx+0x30]
003C 83 C4 06                 add sp, 0x6
003F B8 01 00                 mov ax, 0x1
0042 50                       push ax
0043 C4 5E 06                 les bx, [bp+0x6]
0046 26 FF 5F 24              call far word [es:bx+0x24]
004A 50                       push ax
004B C4 5E 06                 les bx, [bp+0x6]
004E 26 FF 5F 20              call far word [es:bx+0x20]
0052 50                       push ax
0053 C4 5E 06                 les bx, [bp+0x6]
0056 26 FF 5F 2C              call far word [es:bx+0x2c]
005A 83 C4 06                 add sp, 0x6
005D EB 2A                    jmp 0x89
005F                          ShowMessage(0DAE) [es:bx+0xf8] = The door is stuck and will not open.
006C 33 C0                    xor ax, ax
006E 50                       push ax
006F C4 5E 06                 les bx, [bp+0x6]
0072 26 FF 5F 24              call far word [es:bx+0x24]
0076 50                       push ax
0077 C4 5E 06                 les bx, [bp+0x6]
007A 26 FF 5F 20              call far word [es:bx+0x20]
007E 50                       push ax
007F C4 5E 06                 les bx, [bp+0x6]
0082 26 FF 5F 2C              call far word [es:bx+0x2c]
0086 83 C4 06                 add sp, 0x6
0089                          RETURN

Functn15: "STRDOORC"
0000                          BEGIN
0003 33 C0                    xor ax, ax
0005 50                       push ax
0006 C4 5E 06                 les bx, [bp+0x6]
0009 26 FF 9F A4 00           call far word [es:bx+0xa4]
000E 59                       pop cx
000F 3D 11 00                 cmp ax, 0x11
0012 72 4B                    jb 0x5f
0014                          ShowMessage(0DD3) [es:bx+0xf8] = You push hard on the door and it creaks open.
0021 C4 5E 06                 les bx, [bp+0x6]
0024 26 FF 5F 24              call far word [es:bx+0x24]
0028 50                       push ax
0029 C4 5E 06                 les bx, [bp+0x6]
002C 26 FF 5F 20              call far word [es:bx+0x20]
0030 50                       push ax
0031 B8 01 00                 mov ax, 0x1
0034 50                       push ax
0035 C4 5E 06                 les bx, [bp+0x6]
0038 26 FF 5F 30              call far word [es:bx+0x30]
003C 83 C4 06                 add sp, 0x6
003F B8 01 00                 mov ax, 0x1
0042 50                       push ax
0043 C4 5E 06                 les bx, [bp+0x6]
0046 26 FF 5F 24              call far word [es:bx+0x24]
004A 50                       push ax
004B C4 5E 06                 les bx, [bp+0x6]
004E 26 FF 5F 20              call far word [es:bx+0x20]
0052 50                       push ax
0053 C4 5E 06                 les bx, [bp+0x6]
0056 26 FF 5F 2C              call far word [es:bx+0x2c]
005A 83 C4 06                 add sp, 0x6
005D EB 2A                    jmp 0x89
005F                          ShowMessage(0E01) [es:bx+0xf8] = The door refuses to open. It is stuck.
006C 33 C0                    xor ax, ax
006E 50                       push ax
006F C4 5E 06                 les bx, [bp+0x6]
0072 26 FF 5F 24              call far word [es:bx+0x24]
0076 50                       push ax
0077 C4 5E 06                 les bx, [bp+0x6]
007A 26 FF 5F 20              call far word [es:bx+0x20]
007E 50                       push ax
007F C4 5E 06                 les bx, [bp+0x6]
0082 26 FF 5F 2C              call far word [es:bx+0x2c]
0086 83 C4 06                 add sp, 0x6
0089                          RETURN

Functn16: "STRDOORD"
0000                          BEGIN
0003 33 C0                    xor ax, ax
0005 50                       push ax
0006 C4 5E 06                 les bx, [bp+0x6]
0009 26 FF 9F A4 00           call far word [es:bx+0xa4]
000E 59                       pop cx
000F 3D 14 00                 cmp ax, 0x14
0012 72 4B                    jb 0x5f
0014                          ShowMessage(0E28) [es:bx+0xf8] = You manage to open the door by brute strength.
0021 C4 5E 06                 les bx, [bp+0x6]
0024 26 FF 5F 24              call far word [es:bx+0x24]
0028 50                       push ax
0029 C4 5E 06                 les bx, [bp+0x6]
002C 26 FF 5F 20              call far word [es:bx+0x20]
0030 50                       push ax
0031 B8 01 00                 mov ax, 0x1
0034 50                       push ax
0035 C4 5E 06                 les bx, [bp+0x6]
0038 26 FF 5F 30              call far word [es:bx+0x30]
003C 83 C4 06                 add sp, 0x6
003F B8 01 00                 mov ax, 0x1
0042 50                       push ax
0043 C4 5E 06                 les bx, [bp+0x6]
0046 26 FF 5F 24              call far word [es:bx+0x24]
004A 50                       push ax
004B C4 5E 06                 les bx, [bp+0x6]
004E 26 FF 5F 20              call far word [es:bx+0x20]
0052 50                       push ax
0053 C4 5E 06                 les bx, [bp+0x6]
0056 26 FF 5F 2C              call far word [es:bx+0x2c]
005A 83 C4 06                 add sp, 0x6
005D EB 2A                    jmp 0x89
005F                          ShowMessage(0E57) [es:bx+0xf8] = You are not strong enough to force the door open.
006C 33 C0                    xor ax, ax
006E 50                       push ax
006F C4 5E 06                 les bx, [bp+0x6]
0072 26 FF 5F 24              call far word [es:bx+0x24]
0076 50                       push ax
0077 C4 5E 06                 les bx, [bp+0x6]
007A 26 FF 5F 20              call far word [es:bx+0x20]
007E 50                       push ax
007F C4 5E 06                 les bx, [bp+0x6]
0082 26 FF 5F 2C              call far word [es:bx+0x2c]
0086 83 C4 06                 add sp, 0x6
0089                          RETURN

03FC: You encounter a Troll Cleric.
041A: I have almost despaired of finding a way out of this prison. Yet there must be an exit of some kind - stairs or teleport. The guards must have had some way of leaving this area.
04CC: To the east are the guard's living quarters and the interrogation rooms. The 36 prison cells are empty now, except for the resident spirits of those who perished here.
0574: The Troll Cleric bounces her head on the floor in frustration. She must be insane.
05C7: You encounter an Orc Ranger.
05E4: I have heard rumors that some few brave souls have escaped the dungeon. If you can find the Rainbow Bridge, you are near the exit.
0667: The Orc Ranger glares at you and refuses to speak.
069A: You encounter a Halfling Thief.
06BA: A special challenge awaits the brave. If you dare continue after finding what the guard Deldwinn desires, great rewards await you.
073D: Chaos should walk with Chaos and Harmony with Harmony to find the rewards.
0788: The Halfling Thief thumbs his nose at you and dashes off.
07C2: You encounter a Gnome Barbarian.
07E3: Two wizards have crafted a Challenge for the brave. The Wizards' Challenge is on this level, but you cannot reach it from this prison area.
086F: Know that race and Guild must walk together if the Challenge is to be overcome.
08BF: The Gnome Barbarian becomes distracted as he tries to twiddle his thumbs and instead gets them entangled.
0929: You encounter a Dwarf Wizard.
0947: King Cleowyn built his palace inside this volcano because he hoped to unearth the secrets of the wizard Arnakkian. Many of the stones that form Cleowyn's palace were taken from the wizard's castle. No wonder this dungeon is cursed.
0A2F: The Dwarf Wizard smiles kindly, but she refuses to speak.
0A69: There is a teleport in the west wall.
0A8F: Incubi haunt the empty prison cell.
0AB3: As you reach for a jacket lying on the floor, you see Incubi appear in the cell.
0B04: Leeches and Black Widows live in the cell.
0B2F: Just out of reach behind a mass of Leeches and Black Widows is a lockpick.
0B7A: Hell Wolves appear in the cell.
0B9A: A circle of Hell Wolves surrounds you and a mace lying on the floor.
0BDF: Phantasms creep into the empty cell.
0C04: Spirits of the dead guard their precious treasure.
0C37: Your skill at picking locks soon has the door open.
0C6B: The door is locked.
0C7F: The lock of the door clicks open.
0CA1: The door is locked.
0CB5: You successfully pick the lock of the door.
0CE1: The door is locked.
0CF5: The lock of the door is quickly opened by your skillfulness.
0D32: The door is locked.
0D46: You manage to force the door open.
0D69: The door is stuck shut.
0D81: The door flies open as you smash against it.
0DAE: The door is stuck and will not open.
0DD3: You push hard on the door and it creaks open.
0E01: The door refuses to open. It is stuck.
0E28: You manage to open the door by brute strength.
0E57: You are not strong enough to force the door open.
