Functn01: "DROP"
0000                          BEGIN
0003                          ShowMessage(03FC) [es:bx+0xf8] = Other pits in the Labyrinth provide access to hidden areas...
0010                          ShowMessage(043A) [es:bx+0xf8] = This pit, however, sends you to the gates of Death.
001D                          ax = GetHits() [es:bx+0x74]
0024                          DoDamage(ax) [es:bx+0x90]
002E                          RETURN

Functn02: "XOVER"
0000                          BEGIN
0003 C4 5E 06                 les bx, [bp+0x6]
0006 26 FF 5F 20              call far word [es:bx+0x20]
000A 3D 47 00                 cmp ax, 0x47
000D 75 61                    jnz 0x70
000F B8 01 00                 mov ax, 0x1
0012 50                       push ax
0013 B8 01 00                 mov ax, 0x1
0016 50                       push ax
0017 C4 5E 06                 les bx, [bp+0x6]
001A 26 FF 5F 04              call far word [es:bx+0x4]
001E 59                       pop cx
001F 59                       pop cx
0020 0B C0                    or ax, ax
0022 74 1F                    jz 0x43
0024 B8 47 00                 mov ax, 0x47
0027 50                       push ax
0028 33 C0                    xor ax, ax
002A 50                       push ax
002B C4 5E 06                 les bx, [bp+0x6]
002E 26 FF 5F 38              call far word [es:bx+0x38]
0032 59                       pop cx
0033 59                       pop cx
0034                          ShowMessage(046E) [es:bx+0xf8] = A magical platform forms a bridge across the abyss.
0041 EB 2B                    jmp 0x6e
0043                          ShowMessage(04A2) [es:bx+0xf8] = You fall into the abyss and die.
0050                          ShowMessage(04C3) [es:bx+0xf8] = With help, you might have been able to cross here.
005D                          ax = GetHits() [es:bx+0x74]
0064                          DoDamage(ax) [es:bx+0x90]
006E EB 38                    jmp 0xa8
0070 B8 01 00                 mov ax, 0x1
0073 50                       push ax
0074 B8 01 00                 mov ax, 0x1
0077 50                       push ax
0078 C4 5E 06                 les bx, [bp+0x6]
007B 26 FF 5F 04              call far word [es:bx+0x4]
007F 59                       pop cx
0080 59                       pop cx
0081 0B C0                    or ax, ax
0083 74 12                    jz 0x97
0085 B8 47 00                 mov ax, 0x47
0088 50                       push ax
0089 33 C0                    xor ax, ax
008B 50                       push ax
008C C4 5E 06                 les bx, [bp+0x6]
008F 26 FF 5F 38              call far word [es:bx+0x38]
0093 59                       pop cx
0094 59                       pop cx
0095 EB 11                    jmp 0xa8
0097 B8 47 00                 mov ax, 0x47
009A 50                       push ax
009B B8 01 00                 mov ax, 0x1
009E 50                       push ax
009F C4 5E 06                 les bx, [bp+0x6]
00A2 26 FF 5F 38              call far word [es:bx+0x38]
00A6 59                       pop cx
00A7 59                       pop cx
00A8                          RETURN

Functn03: "XOVERON"
0000                          BEGIN
0003                          SetState(01, 01, 01) [es:bx]
0018 B8 47 00                 mov ax, 0x47
001B 50                       push ax
001C 33 C0                    xor ax, ax
001E 50                       push ax
001F C4 5E 06                 les bx, [bp+0x6]
0022 26 FF 5F 38              call far word [es:bx+0x38]
0026 59                       pop cx
0027 59                       pop cx
0028                          ShowMessage(04F6) [es:bx+0xf8] = Something strange happens!
0035                          ShowMessage(0511) [es:bx+0xf8] = When you step onto the stone, a magical platform appears nearby.
0042                          RETURN

Functn04: "BAZAAR"
0000                          BEGIN
0003                          ShowMessage(0552) [es:bx+0xf8] = You do not suffer the death found in other pits in the Labyrinth.  Instead you are rewarded with a trip to CASTLEGATE BAZAAR.
0010                          GoMap(03, 12, 01, 36) [es:bx+0xbc]
002B                          RETURN

Functn05: "HEAVENS"
0000                          BEGIN
0003                          ShowMessage(05D0) [es:bx+0xf8] = The Dark Dwarf Voranti tricked the Lords of Harmony many moons ago.
0010                          ShowMessage(0614) [es:bx+0xf8] = He stole the secrets of the Winds from the Lords and has used them for his own purposes every since.
001D                          ShowMessage(0679) [es:bx+0xf8] = The Lords' Harmonic Shrine has now become the raging passageway known as HEAVEN'S FURY.
002A                          GoMap(02, A3, 01, 35) [es:bx+0xbc]
0045                          RETURN

Functn06: "EXODUS"
0000                          BEGIN
0003                          ShowMessage(06D1) [es:bx+0xf8] = The survivors of the cataclysm named this place EXODUS.
0010                          ShowMessage(0709) [es:bx+0xf8] = It is here they escaped the horrors of Arnakkian's Castle and began their new subterranean life.
001D                          GoMap(02, 75, 01, 35) [es:bx+0xbc]
0038                          RETURN

Functn07: "WINDHOLO"
0000                          BEGIN
0003                          ShowMessage(076A) [es:bx+0xf8] = No adventurer dares camp in WIND HOLLOW.  At night the howling wind makes one deaf to the dangers.
0010                          GoMap(03, 8A, 01, 35) [es:bx+0xbc]
002B                          RETURN

Functn08: "TEMPEST"
0000                          BEGIN
0003                          ShowMessage(07CD) [es:bx+0xf8] = TEMPEST dares all to explore the magic rooms along her narrow corridor.
0010                          GoMap(01, 9B, 01, 35) [es:bx+0xbc]
002B                          RETURN

Functn09: "WINDHOLO"
0000                          BEGIN
0003                          ShowMessage(0815) [es:bx+0xf8] = The barren rocks are swept clean by the violent winds that race through WIND HOLLOW.
0010                          GoMap(00, 7D, 01, 35) [es:bx+0xbc]
002A                          RETURN

Functn0A: "BACKALLY"
0000                          BEGIN
0003                          ShowMessage(086A) [es:bx+0xf8] = 'Beware!  Those who enter the Labyrinth BACK ALLEY must guard against all!'
0010                          GoMap(00, 4D, 01, 35) [es:bx+0xbc]
002A                          RETURN

Functn0B: "HEAVENS"
0000                          BEGIN
0003                          ShowMessage(08B6) [es:bx+0xf8] = Enter HEAVEN'S FURY if you must.  Here is where Voranti cursed the winds.
0010                          GoMap(02, F3, 01, 35) [es:bx+0xbc]
002B                          RETURN

Functn0C: "LABYATIC"
0000                          BEGIN
0003                          ShowMessage(0900) [es:bx+0xf8] = The gates of LABYRINTH ATTIC are a welcome sight.
0010                          GoMap(02, C3, 01, 33) [es:bx+0xbc]
002B                          RETURN

Functn0D: "WINDHOLO"
0000                          BEGIN
0003                          ShowMessage(0932) [es:bx+0xf8] = The door leads to WYN SANCTUARY.
0010                          GoMap(00, 6D, 01, 33) [es:bx+0xbc]
002A                          RETURN

Functn0E: "THVTRESR"
0000                          BEGIN
0003                          ShowMessage(0953) [es:bx+0xf8] = The gateway opens, revealing the secret chambers of the Labyrinth Thieves.
0010                          GoMap(02, 6E, 01, 33) [es:bx+0xbc]
002B                          RETURN

Functn0F: "LAVA"
0000                          BEGIN
0003                          ShowMessage(099E) [es:bx+0xf8] = You stumble into the lava pools.  You die.
0010                          ax = GetHits() [es:bx+0x74]
0017                          DoDamage(ax) [es:bx+0x90]
0021                          RETURN

Functn10: "DRTOBALY"
0000                          BEGIN
0003                          ShowMessage(09C9) [es:bx+0xf8] = This door locks out all except those who have the alley key.
0010 B8 E0 00                 mov ax, 0xe0
0013 50                       push ax
0014 B8 E0 00                 mov ax, 0xe0
0017 50                       push ax
0018 C4 5E 06                 les bx, [bp+0x6]
001B 26 FF 5F 54              call far word [es:bx+0x54]
001F 59                       pop cx
0020 59                       pop cx
0021 0B C0                    or ax, ax
0023 74 41                    jz 0x66
0025 B8 01 00                 mov ax, 0x1
0028 50                       push ax
0029 B8 03 00                 mov ax, 0x3
002C 50                       push ax
002D C4 5E 06                 les bx, [bp+0x6]
0030 26 FF 5F 20              call far word [es:bx+0x20]
0034 50                       push ax
0035 C4 5E 06                 les bx, [bp+0x6]
0038 26 FF 5F 2C              call far word [es:bx+0x2c]
003C 83 C4 06                 add sp, 0x6
003F B8 03 00                 mov ax, 0x3
0042 50                       push ax
0043 C4 5E 06                 les bx, [bp+0x6]
0046 26 FF 5F 20              call far word [es:bx+0x20]
004A 50                       push ax
004B B8 01 00                 mov ax, 0x1
004E 50                       push ax
004F C4 5E 06                 les bx, [bp+0x6]
0052 26 FF 5F 30              call far word [es:bx+0x30]
0056 83 C4 06                 add sp, 0x6
0059                          ShowMessage(0A06) [es:bx+0xf8] = Your key unlocks the door.
0066                          RETURN

Functn14: "LABYATIC"
0000                          BEGIN
0003                          ShowMessage(0A21) [es:bx+0xf8] = You return to LABYRINTH ATTIC through a one-way tunnel.
0010                          GoMap(02, 59, 01, 33) [es:bx+0xbc]
002B                          RETURN

Functn15: "WINDHOLO"
0000                          BEGIN
0003                          ShowMessage(0A59) [es:bx+0xf8] = The door to WIND HOLLOW bursts open with terrible force, throwing all adventurers against the rocks...
0010                          ShowMessage(0AC0) [es:bx+0xf8] = ...and inflicting heavy damage.
001D                          DoDamage(00C8) [es:bx+0x90]
002A C4 5E 06                 les bx, [bp+0x6]
002D 26 FF 5F 70              call far word [es:bx+0x70]
0031 0B C0                    or ax, ax
0033 77 0D                    ja 0x42
0035                          ShowMessage(0AE0) [es:bx+0xf8] = You have died.
0042                          GoMap(03, BC, 01, 35) [es:bx+0xbc]
005D                          RETURN

Functn16: "MAGICRMS"
0000                          BEGIN
0003                          ShowMessage(0AEF) [es:bx+0xf8] = Runes can be the most powerful of weapons in the hands of an adept Wizard.
0010                          ShowMessage(0B3A) [es:bx+0xf8] = Here, the runes also protect the great mage's magical possessions against the unwanted.
001D                          GoMap(02, 30, 02, 34) [es:bx+0xbc]
0038                          RETURN

Functn18: "ZEPHENCA"
0000                          BEGIN
0003                          SetEncData(16, 01) [es:bx+0xd4]
0015                          SetEncData(16, 02) [es:bx+0xd4]
0027                          SetEncData(19, 05) [es:bx+0xd4]
0039                          SetEncData(19, 06) [es:bx+0xd4]
004B                          ax = HasItem(B4) [es:bx+0x50]
0059 74 21                    jz 0x7c
005B                          SetTreasureData(03E8, 00, 00, 00, 00, D1) [es:bx+0xd8]
007A EB 21                    jmp 0x9d
007C                          SetTreasureData(07D0, 00, 00, C8, B4, D0) [es:bx+0xd8]
009D                          RETURN

Functn19: "ZEPHENCB"
0000                          BEGIN
0003                          ax = CheckState2(02, 79) [es:bx+0x8]
0016 74 63                    jz 0x7b
0018                          ax = HasItem(09) [es:bx+0x50]
0026 75 10                    jnz 0x38
0028                          ax = HasItem(F0) [es:bx+0x50]
0036 74 22                    jz 0x5a
0038                          SetTreasureData(1388, 00, 00, 00, B3, D0) [es:bx+0xd8]
0058 EB 1F                    jmp 0x79
005A                          SetTreasureData(2710, 00, 00, 00, 00, F0) [es:bx+0xd8]
0079 EB 6F                    jmp 0xea
007B                          ax = HasItem(E6) [es:bx+0x50]
0089 74 5F                    jz 0xea
008B B8 E6 00                 mov ax, 0xe6
008E 50                       push ax
008F C4 5E 06                 les bx, [bp+0x6]
0092 26 FF 5F 4C              call far word [es:bx+0x4c]
0096 59                       pop cx
0097                          SetState(02, 79, 01) [es:bx]
00AC                          SetTreasureData(2710, 00, 00, 00, 00, F0) [es:bx+0xd8]
00CB B8 03 00                 mov ax, 0x3
00CE BA 90 D0                 mov dx, 0xd090
00D1 50                       push ax
00D2 52                       push dx
00D3 C4 5E 06                 les bx, [bp+0x6]
00D6 26 FF 9F 98 00           call far word [es:bx+0x98]
00DB 59                       pop cx
00DC 59                       pop cx
00DD                          ShowMessage(0B92) [es:bx+0xf8] = The Zephyr Wind whispers, 'I have taken the Harvest Horn, and I give you something to help defeat the Wind Elemental'.
00EA                          SetEncData(10, 01) [es:bx+0xd4]
00FC                          SetEncData(10, 02) [es:bx+0xd4]
010E                          SetEncData(0F, 05) [es:bx+0xd4]
0120                          SetEncData(0F, 06) [es:bx+0xd4]
0132                          RETURN

Functn1B: "TXTZEPHR"
0000                          BEGIN
0003                          ShowMessage(0C09) [es:bx+0xf8] = The Zephyr Wind whistles 'No harm was intended, but I am sworn to serve the Wind Elemental.  Return the Harvest Horn to my Wyverns to release my bonds.'
0010                          RETURN

Functn1C: "XOVEROFF"
0000                          BEGIN
0003                          SetState(01, 01, 00) [es:bx]
0017 B8 47 00                 mov ax, 0x47
001A 50                       push ax
001B B8 01 00                 mov ax, 0x1
001E 50                       push ax
001F C4 5E 06                 les bx, [bp+0x6]
0022 26 FF 5F 38              call far word [es:bx+0x38]
0026 59                       pop cx
0027 59                       pop cx
0028                          ShowMessage(0CA2) [es:bx+0xf8] = A magical platform nearby seems to disappear.
0035                          RETURN

Functn1D: "ZEPHBLOW"
0000                          BEGIN
0003                          ShowMessage(0CD0) [es:bx+0xf8] = The Zephyr Wind gusts in fury, causing damage!
0010                          ax = GetHits() [es:bx+0x74]
0017 BB 03 00                 mov bx, 0x3
001A 99                       cwd
001B F7 FB                    idiv bx
001D                          DoDamage(ax) [es:bx+0x90]
0027 C4 5E 06                 les bx, [bp+0x6]
002A 26 FF 5F 70              call far word [es:bx+0x70]
002E 0B C0                    or ax, ax
0030 77 0D                    ja 0x3f
0032                          ShowMessage(0CFF) [es:bx+0xf8] = You have died.
003F                          RETURN

Functn1E: "DRLPENCA"
0000                          BEGIN
0003                          ShowMessage(0D0E) [es:bx+0xf8] = Wafts of reddish smoke eminate from the rooms ahead.
0010                          SetEncData(19, 01) [es:bx+0xd4]
0022                          SetEncData(19, 02) [es:bx+0xd4]
0034                          SetEncData(0F, 05) [es:bx+0xd4]
0046                          SetEncData(0F, 06) [es:bx+0xd4]
0058                          RETURN

Functn1F: "DRLPENCB"
0000                          BEGIN
0003                          ShowMessage(0D43) [es:bx+0xf8] = An acrid odor fills these chambers.
0010                          SetEncData(0F, 01) [es:bx+0xd4]
0022                          SetEncData(0F, 02) [es:bx+0xd4]
0034                          SetEncData(1B, 05) [es:bx+0xd4]
0046                          SetEncData(1B, 06) [es:bx+0xd4]
0058                          RETURN

Functn20: "DRLPENCC"
0000                          BEGIN
0003                          ShowMessage(0D67) [es:bx+0xf8] = The fiery eyes of Ancient Dragons blaze through the thick clouds that fill the chamber.
0010                          SetEncData(1C, 01) [es:bx+0xd4]
0022                          SetEncData(1C, 02) [es:bx+0xd4]
0034                          SetEncData(1C, 03) [es:bx+0xd4]
0046                          SetEncData(1C, 04) [es:bx+0xd4]
0058                          SetEncData(1A, 05) [es:bx+0xd4]
006A                          SetEncData(1A, 06) [es:bx+0xd4]
007C                          ax = HasItem(DF) [es:bx+0x50]
008A 74 21                    jz 0xad
008C                          SetTreasureData(03E8, 00, 00, 00, 00, D1) [es:bx+0xd8]
00AB EB 21                    jmp 0xce
00AD                          SetTreasureData(4E20, 00, 00, DF, 46, 6E) [es:bx+0xd8]
00CE                          RETURN

Functn21: "ZZYZENCA"
0000                          BEGIN
0003                          SetEncData(1E, 01) [es:bx+0xd4]
0015                          SetEncData(1E, 02) [es:bx+0xd4]
0027                          SetEncData(1E, 03) [es:bx+0xd4]
0039                          SetEncData(1E, 04) [es:bx+0xd4]
004B                          SetEncData(1D, 05) [es:bx+0xd4]
005D                          SetEncData(1D, 06) [es:bx+0xd4]
006F                          SetTreasureData(1388, 00, 00, 17, 08, 6C) [es:bx+0xd8]
0090                          RETURN

Functn23: "SDRZZYZA"
0000                          BEGIN
0003 B8 0D 00                 mov ax, 0xd
0006 50                       push ax
0007 C4 5E 06                 les bx, [bp+0x6]
000A 26 FF 5F 58              call far word [es:bx+0x58]
000E 59                       pop cx
000F 3D 0B 00                 cmp ax, 0xb
0012 73 25                    jae 0x39
0014 B8 17 00                 mov ax, 0x17
0017 50                       push ax
0018 C4 5E 06                 les bx, [bp+0x6]
001B 26 FF 5F 64              call far word [es:bx+0x64]
001F 59                       pop cx
0020 0B C0                    or ax, ax
0022 75 15                    jnz 0x39
0024 B8 BE 00                 mov ax, 0xbe
0027 50                       push ax
0028 B8 BE 00                 mov ax, 0xbe
002B 50                       push ax
002C C4 5E 06                 les bx, [bp+0x6]
002F 26 FF 5F 54              call far word [es:bx+0x54]
0033 59                       pop cx
0034 59                       pop cx
0035 0B C0                    or ax, ax
0037 74 49                    jz 0x82
0039                          ShowMessage(0DBF) [es:bx+0xf8] = You detect a secret door in the wall.
0046 B8 01 00                 mov ax, 0x1
0049 50                       push ax
004A C4 5E 06                 les bx, [bp+0x6]
004D 26 FF 5F 24              call far word [es:bx+0x24]
0051 50                       push ax
0052 C4 5E 06                 les bx, [bp+0x6]
0055 26 FF 5F 20              call far word [es:bx+0x20]
0059 50                       push ax
005A C4 5E 06                 les bx, [bp+0x6]
005D 26 FF 5F 2C              call far word [es:bx+0x2c]
0061 83 C4 06                 add sp, 0x6
0064 C4 5E 06                 les bx, [bp+0x6]
0067 26 FF 5F 24              call far word [es:bx+0x24]
006B 50                       push ax
006C C4 5E 06                 les bx, [bp+0x6]
006F 26 FF 5F 20              call far word [es:bx+0x20]
0073 50                       push ax
0074 B8 01 00                 mov ax, 0x1
0077 50                       push ax
0078 C4 5E 06                 les bx, [bp+0x6]
007B 26 FF 5F 30              call far word [es:bx+0x30]
007F 83 C4 06                 add sp, 0x6
0082                          RETURN

Functn24: "ZZYZENCC"
0000                          BEGIN
0003                          SetEncData(10, 01) [es:bx+0xd4]
0015                          SetEncData(10, 02) [es:bx+0xd4]
0027                          SetEncData(1D, 03) [es:bx+0xd4]
0039                          SetEncData(1D, 04) [es:bx+0xd4]
004B                          RETURN

Functn25: "MGOVENCA"
0000                          BEGIN
0003                          ShowMessage(0DE5) [es:bx+0xf8] = A stash of wizard items is being raided.
0010                          SetEncData(1F, 01) [es:bx+0xd4]
0022                          SetEncData(1F, 02) [es:bx+0xd4]
0034                          SetEncData(20, 03) [es:bx+0xd4]
0046                          SetEncData(20, 04) [es:bx+0xd4]
0058                          SetTreasureData(03E8, 00, 00, CA, B2, B1) [es:bx+0xd8]
0079                          RETURN

Functn26: "MGOVENCB"
0000                          BEGIN
0003                          SetEncData(1F, 01) [es:bx+0xd4]
0015                          SetEncData(1F, 02) [es:bx+0xd4]
0027                          SetEncData(1F, 03) [es:bx+0xd4]
0039                          SetEncData(19, 04) [es:bx+0xd4]
004B                          SetEncData(05, 05) [es:bx+0xd4]
005D                          RETURN

Functn28: "SDRMGOVA"
0000                          BEGIN
0003 C4 5E 06                 les bx, [bp+0x6]
0006 26 FF 5F 7C              call far word [es:bx+0x7c]
000A 3D 05 00                 cmp ax, 0x5
000D 74 03                    jz 0x12
000F E9 7F 00                 jmp 0x91
0012 B8 0D 00                 mov ax, 0xd
0015 50                       push ax
0016 C4 5E 06                 les bx, [bp+0x6]
0019 26 FF 5F 58              call far word [es:bx+0x58]
001D 59                       pop cx
001E 3D 0C 00                 cmp ax, 0xc
0021 73 25                    jae 0x48
0023 B8 17 00                 mov ax, 0x17
0026 50                       push ax
0027 C4 5E 06                 les bx, [bp+0x6]
002A 26 FF 5F 64              call far word [es:bx+0x64]
002E 59                       pop cx
002F 0B C0                    or ax, ax
0031 75 15                    jnz 0x48
0033 B8 BE 00                 mov ax, 0xbe
0036 50                       push ax
0037 B8 BE 00                 mov ax, 0xbe
003A 50                       push ax
003B C4 5E 06                 les bx, [bp+0x6]
003E 26 FF 5F 54              call far word [es:bx+0x54]
0042 59                       pop cx
0043 59                       pop cx
0044 0B C0                    or ax, ax
0046 74 49                    jz 0x91
0048                          ShowMessage(0E0E) [es:bx+0xf8] = You locate a hidden door in the wall.
0055 B8 01 00                 mov ax, 0x1
0058 50                       push ax
0059 C4 5E 06                 les bx, [bp+0x6]
005C 26 FF 5F 24              call far word [es:bx+0x24]
0060 50                       push ax
0061 C4 5E 06                 les bx, [bp+0x6]
0064 26 FF 5F 20              call far word [es:bx+0x20]
0068 50                       push ax
0069 C4 5E 06                 les bx, [bp+0x6]
006C 26 FF 5F 2C              call far word [es:bx+0x2c]
0070 83 C4 06                 add sp, 0x6
0073 C4 5E 06                 les bx, [bp+0x6]
0076 26 FF 5F 24              call far word [es:bx+0x24]
007A 50                       push ax
007B C4 5E 06                 les bx, [bp+0x6]
007E 26 FF 5F 20              call far word [es:bx+0x20]
0082 50                       push ax
0083 B8 01 00                 mov ax, 0x1
0086 50                       push ax
0087 C4 5E 06                 les bx, [bp+0x6]
008A 26 FF 5F 30              call far word [es:bx+0x30]
008E 83 C4 06                 add sp, 0x6
0091                          RETURN

Functn29: "VORAENCA"
0000                          BEGIN
0003                          SetEncData(22, 01) [es:bx+0xd4]
0015                          SetEncData(22, 02) [es:bx+0xd4]
0027                          SetEncData(10, 03) [es:bx+0xd4]
0039                          SetEncData(10, 04) [es:bx+0xd4]
004B                          RETURN

Functn2A: "VORAENCB"
0000                          BEGIN
0003                          SetEncData(22, 01) [es:bx+0xd4]
0015                          SetEncData(22, 02) [es:bx+0xd4]
0027                          SetEncData(15, 03) [es:bx+0xd4]
0039                          SetEncData(12, 04) [es:bx+0xd4]
004B                          RETURN

Functn30: "VORAENCV"
0000                          BEGIN
0003                          ShowMessage(0E34) [es:bx+0xf8] = A powerful Dwarf Thief stands before you. 'I am Voranti, Lord of Dwarf Thieves!  Fight me if you must, but you shall not find my secret treasure!  Do not fear, for I will provide decent burial when I am finished.'
0010 C4 5E 06                 les bx, [bp+0x6]
0013 26 FF 5F 78              call far word [es:bx+0x78]
0017 3D 02 00                 cmp ax, 0x2
001A 75 0D                    jnz 0x29
001C                          ShowMessage(0F0A) [es:bx+0xf8] = Voranti's dark eyes glow bright with hatred. 'As for you, miserable Elf, my pet gargoyles will pick your bones clean.'
0029 C4 5E 06                 les bx, [bp+0x6]
002C 26 FF 5F 78              call far word [es:bx+0x78]
0030 3D 04 00                 cmp ax, 0x4
0033 75 0D                    jnz 0x42
0035                          ShowMessage(0F81) [es:bx+0xf8] = Voranti smiles sadly. 'It saddens me that I must kill a fellow dwarf, but you have brought death upon yourself.'
0042                          SetEncData(1C, 01) [es:bx+0xd4]
0054                          SetEncData(21, 05) [es:bx+0xd4]
0066                          ax = HasItem(ED) [es:bx+0x50]
0074 74 21                    jz 0x97
0076                          SetTreasureData(1388, 00, 00, 00, 00, CC) [es:bx+0xd8]
0095 EB 1F                    jmp 0xb6
0097                          SetTreasureData(2710, 00, 00, 00, 00, ED) [es:bx+0xd8]
00B6                          RETURN

Functn31: "SDRVORDW"
0000                          BEGIN
0003 B8 0D 00                 mov ax, 0xd
0006 50                       push ax
0007 C4 5E 06                 les bx, [bp+0x6]
000A 26 FF 5F 58              call far word [es:bx+0x58]
000E 59                       pop cx
000F 3D 0B 00                 cmp ax, 0xb
0012 73 25                    jae 0x39
0014 B8 17 00                 mov ax, 0x17
0017 50                       push ax
0018 C4 5E 06                 les bx, [bp+0x6]
001B 26 FF 5F 64              call far word [es:bx+0x64]
001F 59                       pop cx
0020 0B C0                    or ax, ax
0022 75 15                    jnz 0x39
0024 B8 BE 00                 mov ax, 0xbe
0027 50                       push ax
0028 B8 BE 00                 mov ax, 0xbe
002B 50                       push ax
002C C4 5E 06                 les bx, [bp+0x6]
002F 26 FF 5F 54              call far word [es:bx+0x54]
0033 59                       pop cx
0034 59                       pop cx
0035 0B C0                    or ax, ax
0037 74 49                    jz 0x82
0039                          ShowMessage(0FF2) [es:bx+0xf8] = You find a secret door in the wall.
0046 C4 5E 06                 les bx, [bp+0x6]
0049 26 FF 5F 24              call far word [es:bx+0x24]
004D 50                       push ax
004E C4 5E 06                 les bx, [bp+0x6]
0051 26 FF 5F 20              call far word [es:bx+0x20]
0055 50                       push ax
0056 B8 01 00                 mov ax, 0x1
0059 50                       push ax
005A C4 5E 06                 les bx, [bp+0x6]
005D 26 FF 5F 30              call far word [es:bx+0x30]
0061 83 C4 06                 add sp, 0x6
0064 B8 01 00                 mov ax, 0x1
0067 50                       push ax
0068 C4 5E 06                 les bx, [bp+0x6]
006B 26 FF 5F 24              call far word [es:bx+0x24]
006F 50                       push ax
0070 C4 5E 06                 les bx, [bp+0x6]
0073 26 FF 5F 20              call far word [es:bx+0x20]
0077 50                       push ax
0078 C4 5E 06                 les bx, [bp+0x6]
007B 26 FF 5F 2C              call far word [es:bx+0x2c]
007F 83 C4 06                 add sp, 0x6
0082                          RETURN

Functn32: "MOONENCA"
0000                          BEGIN
0003                          SetEncData(0A, 01) [es:bx+0xd4]
0015                          SetEncData(0A, 02) [es:bx+0xd4]
0027                          SetEncData(24, 03) [es:bx+0xd4]
0039                          SetEncData(24, 04) [es:bx+0xd4]
004B                          ax = HasItem(BE) [es:bx+0x50]
0059 74 22                    jz 0x7d
005B                          SetTreasureData(07D0, 00, 00, 00, D0, B7) [es:bx+0xd8]
007B EB 21                    jmp 0x9e
007D                          SetTreasureData(1388, 00, 00, C6, D1, BE) [es:bx+0xd8]
009E                          RETURN

Functn33: "MOONENCB"
0000                          BEGIN
0003                          SetEncData(26, 01) [es:bx+0xd4]
0015                          SetEncData(26, 02) [es:bx+0xd4]
0027                          SetEncData(25, 03) [es:bx+0xd4]
0039                          SetEncData(26, 05) [es:bx+0xd4]
004B                          SetEncData(26, 06) [es:bx+0xd4]
005D                          SetTreasureData(1B58, 00, 00, 00, 59, 13) [es:bx+0xd8]
007D                          RETURN

Functn34: "MOONENCC"
0000                          BEGIN
0003                          SetEncData(0E, 01) [es:bx+0xd4]
0015                          SetEncData(0E, 02) [es:bx+0xd4]
0027                          SetEncData(1C, 03) [es:bx+0xd4]
0039                          SetEncData(1C, 04) [es:bx+0xd4]
004B                          SetEncData(1B, 05) [es:bx+0xd4]
005D                          SetEncData(1B, 06) [es:bx+0xd4]
006F                          SetTreasureData(2710, 00, 00, 00, 83, 10) [es:bx+0xd8]
008F                          RETURN

Functn35: "MOONENCD"
0000                          BEGIN
0003                          SetEncData(24, 01) [es:bx+0xd4]
0015                          SetEncData(24, 02) [es:bx+0xd4]
0027                          SetEncData(24, 03) [es:bx+0xd4]
0039                          SetEncData(24, 04) [es:bx+0xd4]
004B                          RETURN

Functn36: "MOONENCE"
0000                          BEGIN
0003                          ShowMessage(1016) [es:bx+0xf8] = A nest of young dragons!
0010                          SetEncData(0E, 01) [es:bx+0xd4]
0022                          SetEncData(0E, 02) [es:bx+0xd4]
0034                          SetEncData(0F, 03) [es:bx+0xd4]
0046                          SetEncData(1C, 04) [es:bx+0xd4]
0058                          RETURN

Functn37: "MOONENCF"
0000                          BEGIN
0003                          SetEncData(24, 01) [es:bx+0xd4]
0015                          SetEncData(24, 02) [es:bx+0xd4]
0027                          SetEncData(24, 05) [es:bx+0xd4]
0039                          RETURN

Functn38: "MOONENCG"
0000                          BEGIN
0003                          ShowMessage(102F) [es:bx+0xf8] = A yellowed piece of paper  --
0010                          ShowMessage(104D) [es:bx+0xf8] = 'Help! My brother Orilon has been bitten by bears and is transformed.'  - signed Margery
001D                          SetEncData(28, 01) [es:bx+0xd4]
002F                          SetEncData(28, 02) [es:bx+0xd4]
0041                          SetEncData(28, 03) [es:bx+0xd4]
0053                          SetEncData(24, 05) [es:bx+0xd4]
0065                          SetEncData(24, 06) [es:bx+0xd4]
0077                          ax = HasItem(EA) [es:bx+0x50]
0085 74 21                    jz 0xa8
0087                          SetTreasureData(2328, 00, 00, 00, 00, BB) [es:bx+0xd8]
00A6 EB 20                    jmp 0xc8
00A8                          SetTreasureData(1388, 00, 00, 00, EA, 85) [es:bx+0xd8]
00C8                          RETURN

Functn3A: "TXTMOONB"
0000                          BEGIN
0003                          ShowMessage(10A6) [es:bx+0xf8] = A note -- 'Only past the Darkside will you find En-Li-Kil himself.'
0010                          RETURN

Functn3B: "MOONENCJ"
0000                          BEGIN
0003                          SetEncData(12, 01) [es:bx+0xd4]
0015                          SetEncData(12, 02) [es:bx+0xd4]
0027                          SetEncData(1E, 03) [es:bx+0xd4]
0039                          SetEncData(1E, 04) [es:bx+0xd4]
004B                          RETURN

Functn3C: "MOONENCK"
0000                          BEGIN
0003                          SetEncData(26, 01) [es:bx+0xd4]
0015                          SetEncData(26, 02) [es:bx+0xd4]
0027                          SetEncData(26, 03) [es:bx+0xd4]
0039                          SetEncData(25, 05) [es:bx+0xd4]
004B                          SetEncData(25, 06) [es:bx+0xd4]
005D                          RETURN

Functn3E: "BDRMOONB"
0000                          BEGIN
0003                          ShowMessage(10EA) [es:bx+0xf8] = This door requires immense strength to open.
0010                          CheckStrength(15) [es:bx+0xa4]
001F 72 49                    jb 0x6a
0021                          ShowMessage(1117) [es:bx+0xf8] = You push against the door and barely manage to open it.
002E C4 5E 06                 les bx, [bp+0x6]
0031 26 FF 5F 24              call far word [es:bx+0x24]
0035 50                       push ax
0036 C4 5E 06                 les bx, [bp+0x6]
0039 26 FF 5F 20              call far word [es:bx+0x20]
003D 50                       push ax
003E B8 01 00                 mov ax, 0x1
0041 50                       push ax
0042 C4 5E 06                 les bx, [bp+0x6]
0045 26 FF 5F 30              call far word [es:bx+0x30]
0049 83 C4 06                 add sp, 0x6
004C B8 01 00                 mov ax, 0x1
004F 50                       push ax
0050 C4 5E 06                 les bx, [bp+0x6]
0053 26 FF 5F 24              call far word [es:bx+0x24]
0057 50                       push ax
0058 C4 5E 06                 les bx, [bp+0x6]
005B 26 FF 5F 20              call far word [es:bx+0x20]
005F 50                       push ax
0060 C4 5E 06                 les bx, [bp+0x6]
0063 26 FF 5F 2C              call far word [es:bx+0x2c]
0067 83 C4 06                 add sp, 0x6
006A                          RETURN

Functn3F: "SDRMOONC"
0000                          BEGIN
0003 B8 F2 00                 mov ax, 0xf2
0006 50                       push ax
0007 B8 F2 00                 mov ax, 0xf2
000A 50                       push ax
000B C4 5E 06                 les bx, [bp+0x6]
000E 26 FF 5F 54              call far word [es:bx+0x54]
0012 59                       pop cx
0013 59                       pop cx
0014 0B C0                    or ax, ax
0016 74 49                    jz 0x61
0018                          ShowMessage(114F) [es:bx+0xf8] = Your Moon Prism reveals a secret door!
0025 C4 5E 06                 les bx, [bp+0x6]
0028 26 FF 5F 24              call far word [es:bx+0x24]
002C 50                       push ax
002D C4 5E 06                 les bx, [bp+0x6]
0030 26 FF 5F 20              call far word [es:bx+0x20]
0034 50                       push ax
0035 B8 01 00                 mov ax, 0x1
0038 50                       push ax
0039 C4 5E 06                 les bx, [bp+0x6]
003C 26 FF 5F 30              call far word [es:bx+0x30]
0040 83 C4 06                 add sp, 0x6
0043 B8 01 00                 mov ax, 0x1
0046 50                       push ax
0047 C4 5E 06                 les bx, [bp+0x6]
004A 26 FF 5F 24              call far word [es:bx+0x24]
004E 50                       push ax
004F C4 5E 06                 les bx, [bp+0x6]
0052 26 FF 5F 20              call far word [es:bx+0x20]
0056 50                       push ax
0057 C4 5E 06                 les bx, [bp+0x6]
005A 26 FF 5F 2C              call far word [es:bx+0x2c]
005E 83 C4 06                 add sp, 0x6
0061                          RETURN

Functn40: "SDRMOOND"
0000                          BEGIN
0003 B8 0D 00                 mov ax, 0xd
0006 50                       push ax
0007 C4 5E 06                 les bx, [bp+0x6]
000A 26 FF 5F 58              call far word [es:bx+0x58]
000E 59                       pop cx
000F 3D 0B 00                 cmp ax, 0xb
0012 73 3A                    jae 0x4e
0014 B8 17 00                 mov ax, 0x17
0017 50                       push ax
0018 C4 5E 06                 les bx, [bp+0x6]
001B 26 FF 5F 64              call far word [es:bx+0x64]
001F 59                       pop cx
0020 0B C0                    or ax, ax
0022 75 2A                    jnz 0x4e
0024 B8 A2 00                 mov ax, 0xa2
0027 50                       push ax
0028 B8 A2 00                 mov ax, 0xa2
002B 50                       push ax
002C C4 5E 06                 les bx, [bp+0x6]
002F 26 FF 5F 54              call far word [es:bx+0x54]
0033 59                       pop cx
0034 59                       pop cx
0035 0B C0                    or ax, ax
0037 75 15                    jnz 0x4e
0039 B8 BE 00                 mov ax, 0xbe
003C 50                       push ax
003D B8 BE 00                 mov ax, 0xbe
0040 50                       push ax
0041 C4 5E 06                 les bx, [bp+0x6]
0044 26 FF 5F 54              call far word [es:bx+0x54]
0048 59                       pop cx
0049 59                       pop cx
004A 0B C0                    or ax, ax
004C 74 49                    jz 0x97
004E                          ShowMessage(1176) [es:bx+0xf8] = You find a door hidden in the wall.
005B C4 5E 06                 les bx, [bp+0x6]
005E 26 FF 5F 24              call far word [es:bx+0x24]
0062 50                       push ax
0063 C4 5E 06                 les bx, [bp+0x6]
0066 26 FF 5F 20              call far word [es:bx+0x20]
006A 50                       push ax
006B B8 01 00                 mov ax, 0x1
006E 50                       push ax
006F C4 5E 06                 les bx, [bp+0x6]
0072 26 FF 5F 30              call far word [es:bx+0x30]
0076 83 C4 06                 add sp, 0x6
0079 B8 01 00                 mov ax, 0x1
007C 50                       push ax
007D C4 5E 06                 les bx, [bp+0x6]
0080 26 FF 5F 24              call far word [es:bx+0x24]
0084 50                       push ax
0085 C4 5E 06                 les bx, [bp+0x6]
0088 26 FF 5F 20              call far word [es:bx+0x20]
008C 50                       push ax
008D C4 5E 06                 les bx, [bp+0x6]
0090 26 FF 5F 2C              call far word [es:bx+0x2c]
0094 83 C4 06                 add sp, 0x6
0097                          RETURN

Functn41: "SDRMOONE"
0000                          BEGIN
0003                          ShowMessage(119A) [es:bx+0xf8] = The signature of the spectrum appears on the wall.
0010 B8 BD 00                 mov ax, 0xbd
0013 50                       push ax
0014 B8 BD 00                 mov ax, 0xbd
0017 50                       push ax
0018 C4 5E 06                 les bx, [bp+0x6]
001B 26 FF 5F 54              call far word [es:bx+0x54]
001F 59                       pop cx
0020 59                       pop cx
0021 0B C0                    or ax, ax
0023 75 15                    jnz 0x3a
0025 B8 BE 00                 mov ax, 0xbe
0028 50                       push ax
0029 B8 BE 00                 mov ax, 0xbe
002C 50                       push ax
002D C4 5E 06                 les bx, [bp+0x6]
0030 26 FF 5F 54              call far word [es:bx+0x54]
0034 59                       pop cx
0035 59                       pop cx
0036 0B C0                    or ax, ax
0038 74 49                    jz 0x83
003A                          ShowMessage(11CD) [es:bx+0xf8] = In the wall is a secret door.
0047 C4 5E 06                 les bx, [bp+0x6]
004A 26 FF 5F 24              call far word [es:bx+0x24]
004E 50                       push ax
004F C4 5E 06                 les bx, [bp+0x6]
0052 26 FF 5F 20              call far word [es:bx+0x20]
0056 50                       push ax
0057 B8 01 00                 mov ax, 0x1
005A 50                       push ax
005B C4 5E 06                 les bx, [bp+0x6]
005E 26 FF 5F 30              call far word [es:bx+0x30]
0062 83 C4 06                 add sp, 0x6
0065 B8 01 00                 mov ax, 0x1
0068 50                       push ax
0069 C4 5E 06                 les bx, [bp+0x6]
006C 26 FF 5F 24              call far word [es:bx+0x24]
0070 50                       push ax
0071 C4 5E 06                 les bx, [bp+0x6]
0074 26 FF 5F 20              call far word [es:bx+0x20]
0078 50                       push ax
0079 C4 5E 06                 les bx, [bp+0x6]
007C 26 FF 5F 2C              call far word [es:bx+0x2c]
0080 83 C4 06                 add sp, 0x6
0083                          RETURN

Functn42: "MOONENCM"
0000                          BEGIN
0003                          SetEncData(26, 01) [es:bx+0xd4]
0015                          SetEncData(26, 02) [es:bx+0xd4]
0027                          SetEncData(25, 03) [es:bx+0xd4]
0039                          SetEncData(25, 04) [es:bx+0xd4]
004B                          RETURN

Functn43: "SDRMOONF"
0000                          BEGIN
0003 C4 5E 06                 les bx, [bp+0x6]
0006 26 FF 5F 7C              call far word [es:bx+0x7c]
000A 3D 02 00                 cmp ax, 0x2
000D 74 03                    jz 0x12
000F E9 7F 00                 jmp 0x91
0012 B8 0D 00                 mov ax, 0xd
0015 50                       push ax
0016 C4 5E 06                 les bx, [bp+0x6]
0019 26 FF 5F 58              call far word [es:bx+0x58]
001D 59                       pop cx
001E 3D 0A 00                 cmp ax, 0xa
0021 73 25                    jae 0x48
0023 B8 17 00                 mov ax, 0x17
0026 50                       push ax
0027 C4 5E 06                 les bx, [bp+0x6]
002A 26 FF 5F 64              call far word [es:bx+0x64]
002E 59                       pop cx
002F 0B C0                    or ax, ax
0031 75 15                    jnz 0x48
0033 B8 BE 00                 mov ax, 0xbe
0036 50                       push ax
0037 B8 BE 00                 mov ax, 0xbe
003A 50                       push ax
003B C4 5E 06                 les bx, [bp+0x6]
003E 26 FF 5F 54              call far word [es:bx+0x54]
0042 59                       pop cx
0043 59                       pop cx
0044 0B C0                    or ax, ax
0046 74 49                    jz 0x91
0048                          ShowMessage(11EB) [es:bx+0xf8] = Your Ranger skills help you locate a door hidden in the wall.
0055 C4 5E 06                 les bx, [bp+0x6]
0058 26 FF 5F 24              call far word [es:bx+0x24]
005C 50                       push ax
005D C4 5E 06                 les bx, [bp+0x6]
0060 26 FF 5F 20              call far word [es:bx+0x20]
0064 50                       push ax
0065 B8 01 00                 mov ax, 0x1
0068 50                       push ax
0069 C4 5E 06                 les bx, [bp+0x6]
006C 26 FF 5F 30              call far word [es:bx+0x30]
0070 83 C4 06                 add sp, 0x6
0073 B8 01 00                 mov ax, 0x1
0076 50                       push ax
0077 C4 5E 06                 les bx, [bp+0x6]
007A 26 FF 5F 24              call far word [es:bx+0x24]
007E 50                       push ax
007F C4 5E 06                 les bx, [bp+0x6]
0082 26 FF 5F 20              call far word [es:bx+0x20]
0086 50                       push ax
0087 C4 5E 06                 les bx, [bp+0x6]
008A 26 FF 5F 2C              call far word [es:bx+0x2c]
008E 83 C4 06                 add sp, 0x6
0091                          RETURN

Functn44: "SDRMOONJ"
0000                          BEGIN
0003 C4 5E 06                 les bx, [bp+0x6]
0006 26 FF 5F 7C              call far word [es:bx+0x7c]
000A 3D 04 00                 cmp ax, 0x4
000D 74 03                    jz 0x12
000F E9 7F 00                 jmp 0x91
0012 B8 0D 00                 mov ax, 0xd
0015 50                       push ax
0016 C4 5E 06                 les bx, [bp+0x6]
0019 26 FF 5F 58              call far word [es:bx+0x58]
001D 59                       pop cx
001E 3D 0A 00                 cmp ax, 0xa
0021 73 25                    jae 0x48
0023 B8 17 00                 mov ax, 0x17
0026 50                       push ax
0027 C4 5E 06                 les bx, [bp+0x6]
002A 26 FF 5F 64              call far word [es:bx+0x64]
002E 59                       pop cx
002F 0B C0                    or ax, ax
0031 75 15                    jnz 0x48
0033 B8 BE 00                 mov ax, 0xbe
0036 50                       push ax
0037 B8 BE 00                 mov ax, 0xbe
003A 50                       push ax
003B C4 5E 06                 les bx, [bp+0x6]
003E 26 FF 5F 54              call far word [es:bx+0x54]
0042 59                       pop cx
0043 59                       pop cx
0044 0B C0                    or ax, ax
0046 74 49                    jz 0x91
0048                          ShowMessage(1229) [es:bx+0xf8] = Your holy calling allows you find a door hidden in the wall.
0055 C4 5E 06                 les bx, [bp+0x6]
0058 26 FF 5F 24              call far word [es:bx+0x24]
005C 50                       push ax
005D C4 5E 06                 les bx, [bp+0x6]
0060 26 FF 5F 20              call far word [es:bx+0x20]
0064 50                       push ax
0065 B8 01 00                 mov ax, 0x1
0068 50                       push ax
0069 C4 5E 06                 les bx, [bp+0x6]
006C 26 FF 5F 30              call far word [es:bx+0x30]
0070 83 C4 06                 add sp, 0x6
0073 B8 01 00                 mov ax, 0x1
0076 50                       push ax
0077 C4 5E 06                 les bx, [bp+0x6]
007A 26 FF 5F 24              call far word [es:bx+0x24]
007E 50                       push ax
007F C4 5E 06                 les bx, [bp+0x6]
0082 26 FF 5F 20              call far word [es:bx+0x20]
0086 50                       push ax
0087 C4 5E 06                 les bx, [bp+0x6]
008A 26 FF 5F 2C              call far word [es:bx+0x2c]
008E 83 C4 06                 add sp, 0x6
0091                          RETURN

Functn45: "BDRMOONK"
0000                          BEGIN
0003                          CheckStrength(14) [es:bx+0xa4]
0012 72 4B                    jb 0x5f
0014                          ShowMessage(1266) [es:bx+0xf8] = You barely manage to force open the door.
0021 C4 5E 06                 les bx, [bp+0x6]
0024 26 FF 5F 24              call far word [es:bx+0x24]
0028 50                       push ax
0029 C4 5E 06                 les bx, [bp+0x6]
002C 26 FF 5F 20              call far word [es:bx+0x20]
0030 50                       push ax
0031 B8 01 00                 mov ax, 0x1
0034 50                       push ax
0035 C4 5E 06                 les bx, [bp+0x6]
0038 26 FF 5F 30              call far word [es:bx+0x30]
003C 83 C4 06                 add sp, 0x6
003F B8 01 00                 mov ax, 0x1
0042 50                       push ax
0043 C4 5E 06                 les bx, [bp+0x6]
0046 26 FF 5F 24              call far word [es:bx+0x24]
004A 50                       push ax
004B C4 5E 06                 les bx, [bp+0x6]
004E 26 FF 5F 20              call far word [es:bx+0x20]
0052 50                       push ax
0053 C4 5E 06                 les bx, [bp+0x6]
0056 26 FF 5F 2C              call far word [es:bx+0x2c]
005A 83 C4 06                 add sp, 0x6
005D EB 48                    jmp 0xa7
005F                          ShowMessage(1290) [es:bx+0xf8] = The door is stuck shut.
006C C4 5E 06                 les bx, [bp+0x6]
006F 26 FF 5F 24              call far word [es:bx+0x24]
0073 50                       push ax
0074 C4 5E 06                 les bx, [bp+0x6]
0077 26 FF 5F 20              call far word [es:bx+0x20]
007B 50                       push ax
007C B8 01 00                 mov ax, 0x1
007F 50                       push ax
0080 C4 5E 06                 les bx, [bp+0x6]
0083 26 FF 5F 30              call far word [es:bx+0x30]
0087 83 C4 06                 add sp, 0x6
008A 33 C0                    xor ax, ax
008C 50                       push ax
008D C4 5E 06                 les bx, [bp+0x6]
0090 26 FF 5F 24              call far word [es:bx+0x24]
0094 50                       push ax
0095 C4 5E 06                 les bx, [bp+0x6]
0098 26 FF 5F 20              call far word [es:bx+0x20]
009C 50                       push ax
009D C4 5E 06                 les bx, [bp+0x6]
00A0 26 FF 5F 2C              call far word [es:bx+0x2c]
00A4 83 C4 06                 add sp, 0x6
00A7                          RETURN

Functn46: "SDRMOONM"
0000                          BEGIN
0003 B8 0D 00                 mov ax, 0xd
0006 50                       push ax
0007 C4 5E 06                 les bx, [bp+0x6]
000A 26 FF 5F 58              call far word [es:bx+0x58]
000E 59                       pop cx
000F 3D 08 00                 cmp ax, 0x8
0012 73 25                    jae 0x39
0014 B8 17 00                 mov ax, 0x17
0017 50                       push ax
0018 C4 5E 06                 les bx, [bp+0x6]
001B 26 FF 5F 64              call far word [es:bx+0x64]
001F 59                       pop cx
0020 0B C0                    or ax, ax
0022 75 15                    jnz 0x39
0024 B8 BE 00                 mov ax, 0xbe
0027 50                       push ax
0028 B8 BE 00                 mov ax, 0xbe
002B 50                       push ax
002C C4 5E 06                 les bx, [bp+0x6]
002F 26 FF 5F 54              call far word [es:bx+0x54]
0033 59                       pop cx
0034 59                       pop cx
0035 0B C0                    or ax, ax
0037 74 49                    jz 0x82
0039                          ShowMessage(12A8) [es:bx+0xf8] = Your training helps you find a secret door in the wall.
0046 B8 01 00                 mov ax, 0x1
0049 50                       push ax
004A C4 5E 06                 les bx, [bp+0x6]
004D 26 FF 5F 24              call far word [es:bx+0x24]
0051 50                       push ax
0052 C4 5E 06                 les bx, [bp+0x6]
0055 26 FF 5F 20              call far word [es:bx+0x20]
0059 50                       push ax
005A C4 5E 06                 les bx, [bp+0x6]
005D 26 FF 5F 2C              call far word [es:bx+0x2c]
0061 83 C4 06                 add sp, 0x6
0064 C4 5E 06                 les bx, [bp+0x6]
0067 26 FF 5F 24              call far word [es:bx+0x24]
006B 50                       push ax
006C C4 5E 06                 les bx, [bp+0x6]
006F 26 FF 5F 20              call far word [es:bx+0x20]
0073 50                       push ax
0074 B8 01 00                 mov ax, 0x1
0077 50                       push ax
0078 C4 5E 06                 les bx, [bp+0x6]
007B 26 FF 5F 30              call far word [es:bx+0x30]
007F 83 C4 06                 add sp, 0x6
0082                          RETURN

Functn47: "SDRMOONN"
0000                          BEGIN
0003                          ShowMessage(12E0) [es:bx+0xf8] = You detect a door cleverly hidden in the wall.
0010 C4 5E 06                 les bx, [bp+0x6]
0013 26 FF 5F 24              call far word [es:bx+0x24]
0017 50                       push ax
0018 C4 5E 06                 les bx, [bp+0x6]
001B 26 FF 5F 20              call far word [es:bx+0x20]
001F 50                       push ax
0020 B8 01 00                 mov ax, 0x1
0023 50                       push ax
0024 C4 5E 06                 les bx, [bp+0x6]
0027 26 FF 5F 30              call far word [es:bx+0x30]
002B 83 C4 06                 add sp, 0x6
002E B8 01 00                 mov ax, 0x1
0031 50                       push ax
0032 C4 5E 06                 les bx, [bp+0x6]
0035 26 FF 5F 24              call far word [es:bx+0x24]
0039 50                       push ax
003A C4 5E 06                 les bx, [bp+0x6]
003D 26 FF 5F 20              call far word [es:bx+0x20]
0041 50                       push ax
0042 C4 5E 06                 les bx, [bp+0x6]
0045 26 FF 5F 2C              call far word [es:bx+0x2c]
0049 83 C4 06                 add sp, 0x6
004C                          RETURN

Functn48: "MOONTRSA"
0000                          BEGIN
0003                          ax = HasItem(F2) [es:bx+0x50]
0011 74 0F                    jz 0x22
0013                          ShowMessage(130F) [es:bx+0xf8] = Piles of dirt cover the floor.
0020 EB 2E                    jmp 0x50
0022 B8 F2 00                 mov ax, 0xf2
0025 50                       push ax
0026 C4 5E 06                 les bx, [bp+0x6]
0029 26 FF 5F 48              call far word [es:bx+0x48]
002D 59                       pop cx
002E                          SetState(02, 46, 01) [es:bx]
0043                          ShowMessage(132E) [es:bx+0xf8] = You find a Moon Prism on the floor.
0050                          RETURN

Functn49: "MOONTRSB"
0000                          BEGIN
0003                          ax = CheckState(02, 47, 01) [es:bx+0x4]
0017 75 0F                    jnz 0x28
0019                          ShowMessage(1352) [es:bx+0xf8] = The floor is bare.
0026 EB 2E                    jmp 0x56
0028 B8 37 00                 mov ax, 0x37
002B 50                       push ax
002C C4 5E 06                 les bx, [bp+0x6]
002F 26 FF 5F 48              call far word [es:bx+0x48]
0033 59                       pop cx
0034                          SetState(02, 47, 01) [es:bx]
0049                          ShowMessage(1365) [es:bx+0xf8] = You find the Ranger Spear on the floor.
0056                          RETURN

Functn4A: "MOONTRSC"
0000                          BEGIN
0003                          ax = CheckState(02, 48, 01) [es:bx+0x4]
0017 75 0F                    jnz 0x28
0019                          ShowMessage(138D) [es:bx+0xf8] = There is nothing of interest in this area.
0026 EB 2E                    jmp 0x56
0028 B8 3D 00                 mov ax, 0x3d
002B 50                       push ax
002C C4 5E 06                 les bx, [bp+0x6]
002F 26 FF 5F 48              call far word [es:bx+0x48]
0033 59                       pop cx
0034                          SetState(02, 48, 01) [es:bx]
0049                          ShowMessage(13B8) [es:bx+0xf8] = You find a Holy Halberd lying on the floor.
0056                          RETURN

Functn4B: "TORBFOUN"
0000                          BEGIN
0003                          ShowPortrait(0042) [es:bx+0xfc]
0010                          ShowMessage(13E4) [es:bx+0xf8] = Pictorials of War are painted on the walls surrounding Torbriar's Fountain.
001D B8 63 00                 mov ax, 0x63
0020 50                       push ax
0021 B8 02 00                 mov ax, 0x2
0024 50                       push ax
0025 C4 5E 06                 les bx, [bp+0x6]
0028 26 FF 5F 04              call far word [es:bx+0x4]
002C 59                       pop cx
002D 59                       pop cx
002E 0B C0                    or ax, ax
0030 74 03                    jz 0x35
0032 E9 47 01                 jmp 0x17c
0035                          SetState(02, 63, 01) [es:bx]
004A B8 08 00                 mov ax, 0x8
004D 50                       push ax
004E C4 5E 06                 les bx, [bp+0x6]
0051 26 FF 5F 5C              call far word [es:bx+0x5c]
0055 59                       pop cx
0056 0B C0                    or ax, ax
0058 75 21                    jnz 0x7b
005A B8 02 00                 mov ax, 0x2
005D 50                       push ax
005E B8 08 00                 mov ax, 0x8
0061 50                       push ax
0062 C4 5E 06                 les bx, [bp+0x6]
0065 26 FF 5F 60              call far word [es:bx+0x60]
0069 59                       pop cx
006A 59                       pop cx
006B                          ShowMessage(1430) [es:bx+0xf8] = You gain the skill of Archery!
0078 E9 FF 00                 jmp 0x17a
007B B8 01 00                 mov ax, 0x1
007E 50                       push ax
007F C4 5E 06                 les bx, [bp+0x6]
0082 26 FF 5F 5C              call far word [es:bx+0x5c]
0086 59                       pop cx
0087 0B C0                    or ax, ax
0089 75 21                    jnz 0xac
008B B8 02 00                 mov ax, 0x2
008E 50                       push ax
008F B8 01 00                 mov ax, 0x1
0092 50                       push ax
0093 C4 5E 06                 les bx, [bp+0x6]
0096 26 FF 5F 60              call far word [es:bx+0x60]
009A 59                       pop cx
009B 59                       pop cx
009C                          ShowMessage(144F) [es:bx+0xf8] = You gain the skill of Clubs and Axes!
00A9 E9 CE 00                 jmp 0x17a
00AC B8 05 00                 mov ax, 0x5
00AF 50                       push ax
00B0 C4 5E 06                 les bx, [bp+0x6]
00B3 26 FF 5F 5C              call far word [es:bx+0x5c]
00B7 59                       pop cx
00B8 0B C0                    or ax, ax
00BA 75 21                    jnz 0xdd
00BC B8 02 00                 mov ax, 0x2
00BF 50                       push ax
00C0 B8 05 00                 mov ax, 0x5
00C3 50                       push ax
00C4 C4 5E 06                 les bx, [bp+0x6]
00C7 26 FF 5F 60              call far word [es:bx+0x60]
00CB 59                       pop cx
00CC 59                       pop cx
00CD                          ShowMessage(1475) [es:bx+0xf8] = You gain the skill of Swordsmanship!
00DA E9 9D 00                 jmp 0x17a
00DD B8 0C 00                 mov ax, 0xc
00E0 50                       push ax
00E1 C4 5E 06                 les bx, [bp+0x6]
00E4 26 FF 5F 5C              call far word [es:bx+0x5c]
00E8 59                       pop cx
00E9 0B C0                    or ax, ax
00EB 75 20                    jnz 0x10d
00ED B8 02 00                 mov ax, 0x2
00F0 50                       push ax
00F1 B8 0C 00                 mov ax, 0xc
00F4 50                       push ax
00F5 C4 5E 06                 les bx, [bp+0x6]
00F8 26 FF 5F 60              call far word [es:bx+0x60]
00FC 59                       pop cx
00FD 59                       pop cx
00FE                          ShowMessage(149A) [es:bx+0xf8] = You gain the Bard skill!
010B EB 6D                    jmp 0x17a
010D B8 10 00                 mov ax, 0x10
0110 50                       push ax
0111 C4 5E 06                 les bx, [bp+0x6]
0114 26 FF 5F 5C              call far word [es:bx+0x5c]
0118 59                       pop cx
0119 0B C0                    or ax, ax
011B 75 20                    jnz 0x13d
011D B8 02 00                 mov ax, 0x2
0120 50                       push ax
0121 B8 10 00                 mov ax, 0x10
0124 50                       push ax
0125 C4 5E 06                 les bx, [bp+0x6]
0128 26 FF 5F 60              call far word [es:bx+0x60]
012C 59                       pop cx
012D 59                       pop cx
012E                          ShowMessage(14B3) [es:bx+0xf8] = You gain the skill of Martial Arts!
013B EB 3D                    jmp 0x17a
013D B8 16 00                 mov ax, 0x16
0140 50                       push ax
0141 C4 5E 06                 les bx, [bp+0x6]
0144 26 FF 5F 5C              call far word [es:bx+0x5c]
0148 59                       pop cx
0149 0B C0                    or ax, ax
014B 75 20                    jnz 0x16d
014D B8 02 00                 mov ax, 0x2
0150 50                       push ax
0151 B8 16 00                 mov ax, 0x16
0154 50                       push ax
0155 C4 5E 06                 les bx, [bp+0x6]
0158 26 FF 5F 60              call far word [es:bx+0x60]
015C 59                       pop cx
015D 59                       pop cx
015E                          ShowMessage(14D7) [es:bx+0xf8] = You gain the Channel skill!
016B EB 0D                    jmp 0x17a
016D                          ShowMessage(14F3) [es:bx+0xf8] = The waters have no effect.
017A EB 0D                    jmp 0x189
017C                          ShowMessage(150E) [es:bx+0xf8] = Dust fills the fountain basin.
0189                          RETURN

Functn4C: "TORBENCB"
0000                          BEGIN
0003                          SetEncData(28, 01) [es:bx+0xd4]
0015                          SetEncData(28, 02) [es:bx+0xd4]
0027                          SetEncData(27, 04) [es:bx+0xd4]
0039                          SetEncData(15, 05) [es:bx+0xd4]
004B                          SetEncData(15, 06) [es:bx+0xd4]
005D C4 5E 06                 les bx, [bp+0x6]
0060 26 FF 5F 7C              call far word [es:bx+0x7c]
0064 0B C0                    or ax, ax
0066 75 1F                    jnz 0x87
0068                          SetTreasureData(03E8, 00, 00, 00, 00, 18) [es:bx+0xd8]
0087 C4 5E 06                 les bx, [bp+0x6]
008A 26 FF 5F 7C              call far word [es:bx+0x7c]
008E 3D 01 00                 cmp ax, 0x1
0091 75 1F                    jnz 0xb2
0093                          SetTreasureData(03E8, 00, 00, 00, 00, 11) [es:bx+0xd8]
00B2                          RETURN

Functn4D: "TORBENCC"
0000                          BEGIN
0003                          SetEncData(28, 01) [es:bx+0xd4]
0015                          SetEncData(28, 02) [es:bx+0xd4]
0027                          SetEncData(15, 03) [es:bx+0xd4]
0039                          SetEncData(15, 04) [es:bx+0xd4]
004B                          RETURN

Functn52: "TXTTORB"
0000                          BEGIN
0003                          ShowMessage(152D) [es:bx+0xf8] = A bard's scroll sings a simple song of how someday bands of adventurers will form an invisible bridge across a deadly chasm.
0010                          RETURN

Functn53: "SDRTORBA"
0000                          BEGIN
0003 C4 5E 06                 les bx, [bp+0x6]
0006 26 FF 5F 7C              call far word [es:bx+0x7c]
000A 3D 01 00                 cmp ax, 0x1
000D 74 03                    jz 0x12
000F E9 7F 00                 jmp 0x91
0012 B8 0D 00                 mov ax, 0xd
0015 50                       push ax
0016 C4 5E 06                 les bx, [bp+0x6]
0019 26 FF 5F 58              call far word [es:bx+0x58]
001D 59                       pop cx
001E 3D 08 00                 cmp ax, 0x8
0021 73 25                    jae 0x48
0023 B8 17 00                 mov ax, 0x17
0026 50                       push ax
0027 C4 5E 06                 les bx, [bp+0x6]
002A 26 FF 5F 64              call far word [es:bx+0x64]
002E 59                       pop cx
002F 0B C0                    or ax, ax
0031 75 15                    jnz 0x48
0033 B8 BE 00                 mov ax, 0xbe
0036 50                       push ax
0037 B8 BE 00                 mov ax, 0xbe
003A 50                       push ax
003B C4 5E 06                 les bx, [bp+0x6]
003E 26 FF 5F 54              call far word [es:bx+0x54]
0042 59                       pop cx
0043 59                       pop cx
0044 0B C0                    or ax, ax
0046 74 49                    jz 0x91
0048                          ShowMessage(15AA) [es:bx+0xf8] = A secret door visible only to knights appears in the wall .
0055 B8 01 00                 mov ax, 0x1
0058 50                       push ax
0059 C4 5E 06                 les bx, [bp+0x6]
005C 26 FF 5F 24              call far word [es:bx+0x24]
0060 50                       push ax
0061 C4 5E 06                 les bx, [bp+0x6]
0064 26 FF 5F 20              call far word [es:bx+0x20]
0068 50                       push ax
0069 C4 5E 06                 les bx, [bp+0x6]
006C 26 FF 5F 2C              call far word [es:bx+0x2c]
0070 83 C4 06                 add sp, 0x6
0073 C4 5E 06                 les bx, [bp+0x6]
0076 26 FF 5F 24              call far word [es:bx+0x24]
007A 50                       push ax
007B C4 5E 06                 les bx, [bp+0x6]
007E 26 FF 5F 20              call far word [es:bx+0x20]
0082 50                       push ax
0083 B8 01 00                 mov ax, 0x1
0086 50                       push ax
0087 C4 5E 06                 les bx, [bp+0x6]
008A 26 FF 5F 30              call far word [es:bx+0x30]
008E 83 C4 06                 add sp, 0x6
0091                          RETURN

Functn54: "SDRTORBB"
0000                          BEGIN
0003 C4 5E 06                 les bx, [bp+0x6]
0006 26 FF 5F 7C              call far word [es:bx+0x7c]
000A 0B C0                    or ax, ax
000C 74 03                    jz 0x11
000E E9 7F 00                 jmp 0x90
0011 B8 0D 00                 mov ax, 0xd
0014 50                       push ax
0015 C4 5E 06                 les bx, [bp+0x6]
0018 26 FF 5F 58              call far word [es:bx+0x58]
001C 59                       pop cx
001D 3D 08 00                 cmp ax, 0x8
0020 73 25                    jae 0x47
0022 B8 17 00                 mov ax, 0x17
0025 50                       push ax
0026 C4 5E 06                 les bx, [bp+0x6]
0029 26 FF 5F 64              call far word [es:bx+0x64]
002D 59                       pop cx
002E 0B C0                    or ax, ax
0030 75 15                    jnz 0x47
0032 B8 BE 00                 mov ax, 0xbe
0035 50                       push ax
0036 B8 BE 00                 mov ax, 0xbe
0039 50                       push ax
003A C4 5E 06                 les bx, [bp+0x6]
003D 26 FF 5F 54              call far word [es:bx+0x54]
0041 59                       pop cx
0042 59                       pop cx
0043 0B C0                    or ax, ax
0045 74 49                    jz 0x90
0047                          ShowMessage(15E6) [es:bx+0xf8] = In the wall you find a hidden door.
0054 B8 01 00                 mov ax, 0x1
0057 50                       push ax
0058 C4 5E 06                 les bx, [bp+0x6]
005B 26 FF 5F 24              call far word [es:bx+0x24]
005F 50                       push ax
0060 C4 5E 06                 les bx, [bp+0x6]
0063 26 FF 5F 20              call far word [es:bx+0x20]
0067 50                       push ax
0068 C4 5E 06                 les bx, [bp+0x6]
006B 26 FF 5F 2C              call far word [es:bx+0x2c]
006F 83 C4 06                 add sp, 0x6
0072 C4 5E 06                 les bx, [bp+0x6]
0075 26 FF 5F 24              call far word [es:bx+0x24]
0079 50                       push ax
007A C4 5E 06                 les bx, [bp+0x6]
007D 26 FF 5F 20              call far word [es:bx+0x20]
0081 50                       push ax
0082 B8 01 00                 mov ax, 0x1
0085 50                       push ax
0086 C4 5E 06                 les bx, [bp+0x6]
0089 26 FF 5F 30              call far word [es:bx+0x30]
008D 83 C4 06                 add sp, 0x6
0090                          RETURN

Functn55: "TORBWIND"
0000                          BEGIN
0003                          ShowMessage(160A) [es:bx+0xf8] = The wind is nasty here!  You take 100 damage.
0010                          DoDamage(0064) [es:bx+0x90]
001D C4 5E 06                 les bx, [bp+0x6]
0020 26 FF 5F 70              call far word [es:bx+0x70]
0024 0B C0                    or ax, ax
0026 77 0D                    ja 0x35
0028                          ShowMessage(1638) [es:bx+0xf8] = You have died.
0035                          RETURN

Functn56: "MOONWIND"
0000                          BEGIN
0003                          ShowMessage(1647) [es:bx+0xf8] = The Moon Hollow winds steals 300 Mana!
0010 B8 D4 FE                 mov ax, 0xfed4
0013 50                       push ax
0014 C4 5E 06                 les bx, [bp+0x6]
0017 26 FF 9F B4 00           call far word [es:bx+0xb4]
001C 59                       pop cx
001D                          RETURN

Functn57: "VORAWIND"
0000                          BEGIN
0003                          ShowMessage(166E) [es:bx+0xf8] = A violent whirlwind pounds you, taking half your health!
0010 C4 5E 06                 les bx, [bp+0x6]
0013 26 FF 5F 70              call far word [es:bx+0x70]
0017 BB 02 00                 mov bx, 0x2
001A 99                       cwd
001B F7 FB                    idiv bx
001D                          DoDamage(ax) [es:bx+0x90]
0027 C4 5E 06                 les bx, [bp+0x6]
002A 26 FF 5F 70              call far word [es:bx+0x70]
002E 0B C0                    or ax, ax
0030 77 0D                    ja 0x3f
0032                          ShowMessage(16A7) [es:bx+0xf8] = You have died.
003F                          RETURN

03FC: Other pits in the Labyrinth provide access to hidden areas...
043A: This pit, however, sends you to the gates of Death.
046E: A magical platform forms a bridge across the abyss.
04A2: You fall into the abyss and die.
04C3: With help, you might have been able to cross here.
04F6: Something strange happens!
0511: When you step onto the stone, a magical platform appears nearby.
0552: You do not suffer the death found in other pits in the Labyrinth.  Instead you are rewarded with a trip to CASTLEGATE BAZAAR.
05D0: The Dark Dwarf Voranti tricked the Lords of Harmony many moons ago.
0614: He stole the secrets of the Winds from the Lords and has used them for his own purposes every since.
0679: The Lords' Harmonic Shrine has now become the raging passageway known as HEAVEN'S FURY.
06D1: The survivors of the cataclysm named this place EXODUS.
0709: It is here they escaped the horrors of Arnakkian's Castle and began their new subterranean life.
076A: No adventurer dares camp in WIND HOLLOW.  At night the howling wind makes one deaf to the dangers.
07CD: TEMPEST dares all to explore the magic rooms along her narrow corridor.
0815: The barren rocks are swept clean by the violent winds that race through WIND HOLLOW.
086A: 'Beware!  Those who enter the Labyrinth BACK ALLEY must guard against all!'
08B6: Enter HEAVEN'S FURY if you must.  Here is where Voranti cursed the winds.
0900: The gates of LABYRINTH ATTIC are a welcome sight.
0932: The door leads to WYN SANCTUARY.
0953: The gateway opens, revealing the secret chambers of the Labyrinth Thieves.
099E: You stumble into the lava pools.  You die.
09C9: This door locks out all except those who have the alley key.
0A06: Your key unlocks the door.
0A21: You return to LABYRINTH ATTIC through a one-way tunnel.
0A59: The door to WIND HOLLOW bursts open with terrible force, throwing all adventurers against the rocks...
0AC0: ...and inflicting heavy damage.
0AE0: You have died.
0AEF: Runes can be the most powerful of weapons in the hands of an adept Wizard.
0B3A: Here, the runes also protect the great mage's magical possessions against the unwanted.
0B92: The Zephyr Wind whispers, 'I have taken the Harvest Horn, and I give you something to help defeat the Wind Elemental'.
0C09: The Zephyr Wind whistles 'No harm was intended, but I am sworn to serve the Wind Elemental.  Return the Harvest Horn to my Wyverns to release my bonds.'
0CA2: A magical platform nearby seems to disappear.
0CD0: The Zephyr Wind gusts in fury, causing damage!
0CFF: You have died.
0D0E: Wafts of reddish smoke eminate from the rooms ahead.
0D43: An acrid odor fills these chambers.
0D67: The fiery eyes of Ancient Dragons blaze through the thick clouds that fill the chamber.
0DBF: You detect a secret door in the wall.
0DE5: A stash of wizard items is being raided.
0E0E: You locate a hidden door in the wall.
0E34: A powerful Dwarf Thief stands before you. 'I am Voranti, Lord of Dwarf Thieves!  Fight me if you must, but you shall not find my secret treasure!  Do not fear, for I will provide decent burial when I am finished.'
0F0A: Voranti's dark eyes glow bright with hatred. 'As for you, miserable Elf, my pet gargoyles will pick your bones clean.'
0F81: Voranti smiles sadly. 'It saddens me that I must kill a fellow dwarf, but you have brought death upon yourself.'
0FF2: You find a secret door in the wall.
1016: A nest of young dragons!
102F: A yellowed piece of paper  --
104D: 'Help! My brother Orilon has been bitten by bears and is transformed.'  - signed Margery
10A6: A note -- 'Only past the Darkside will you find En-Li-Kil himself.'
10EA: This door requires immense strength to open.
1117: You push against the door and barely manage to open it.
114F: Your Moon Prism reveals a secret door!
1176: You find a door hidden in the wall.
119A: The signature of the spectrum appears on the wall.
11CD: In the wall is a secret door.
11EB: Your Ranger skills help you locate a door hidden in the wall.
1229: Your holy calling allows you find a door hidden in the wall.
1266: You barely manage to force open the door.
1290: The door is stuck shut.
12A8: Your training helps you find a secret door in the wall.
12E0: You detect a door cleverly hidden in the wall.
130F: Piles of dirt cover the floor.
132E: You find a Moon Prism on the floor.
1352: The floor is bare.
1365: You find the Ranger Spear on the floor.
138D: There is nothing of interest in this area.
13B8: You find a Holy Halberd lying on the floor.
13E4: Pictorials of War are painted on the walls surrounding Torbriar's Fountain.
1430: You gain the skill of Archery!
144F: You gain the skill of Clubs and Axes!
1475: You gain the skill of Swordsmanship!
149A: You gain the Bard skill!
14B3: You gain the skill of Martial Arts!
14D7: You gain the Channel skill!
14F3: The waters have no effect.
150E: Dust fills the fountain basin.
152D: A bard's scroll sings a simple song of how someday bands of adventurers will form an invisible bridge across a deadly chasm.
15AA: A secret door visible only to knights appears in the wall .
15E6: In the wall you find a hidden door.
160A: The wind is nasty here!  You take 100 damage.
1638: You have died.
1647: The Moon Hollow winds steals 300 Mana!
166E: A violent whirlwind pounds you, taking half your health!
16A7: You have died.
