Functn01: "RIVER"
0000                          BEGIN
0003                          ShowMessage(03FC) [es:bx+0xf8] = The River of Eternity taps your life energy.
0010 C4 5E 06                 les bx, [bp+0x6]
0013 26 FF 9F C4 00           call far word [es:bx+0xc4]
0018                          ax = GetHits() [es:bx+0x74]
001F BB 04 00                 mov bx, 0x4
0022 99                       cwd
0023 F7 FB                    idiv bx
0025                          DoDamage(ax) [es:bx+0x90]
002F C4 5E 06                 les bx, [bp+0x6]
0032 26 FF 5F 70              call far word [es:bx+0x70]
0036 0B C0                    or ax, ax
0038 77 0D                    ja 0x47
003A                          ShowMessage(0429) [es:bx+0xf8] = You have died.
0047                          RETURN

Functn02: "RIVRBANK"
0000                          BEGIN
0003                          ShowMessage(0438) [es:bx+0xf8] = Only the bravest adventurers explore the life-devouring River of Eternity for hidden passages.
0010                          RETURN

Functn03: "SECDOORA"
0000                          BEGIN
0003 B8 D4 00                 mov ax, 0xd4
0006 50                       push ax
0007 B8 D4 00                 mov ax, 0xd4
000A 50                       push ax
000B C4 5E 06                 les bx, [bp+0x6]
000E 26 FF 5F 54              call far word [es:bx+0x54]
0012 59                       pop cx
0013 59                       pop cx
0014 0B C0                    or ax, ax
0016 75 15                    jnz 0x2d
0018 B8 6C 00                 mov ax, 0x6c
001B 50                       push ax
001C B8 02 00                 mov ax, 0x2
001F 50                       push ax
0020 C4 5E 06                 les bx, [bp+0x6]
0023 26 FF 5F 04              call far word [es:bx+0x4]
0027 59                       pop cx
0028 59                       pop cx
0029 0B C0                    or ax, ax
002B 74 66                    jz 0x93
002D B8 D4 00                 mov ax, 0xd4
0030 50                       push ax
0031 C4 5E 06                 les bx, [bp+0x6]
0034 26 FF 5F 4C              call far word [es:bx+0x4c]
0038 59                       pop cx
0039                          SetState(02, 6C, 01) [es:bx]
004E B8 01 00                 mov ax, 0x1
0051 50                       push ax
0052 C4 5E 06                 les bx, [bp+0x6]
0055 26 FF 5F 24              call far word [es:bx+0x24]
0059 50                       push ax
005A C4 5E 06                 les bx, [bp+0x6]
005D 26 FF 5F 20              call far word [es:bx+0x20]
0061 50                       push ax
0062 C4 5E 06                 les bx, [bp+0x6]
0065 26 FF 5F 2C              call far word [es:bx+0x2c]
0069 83 C4 06                 add sp, 0x6
006C B8 01 00                 mov ax, 0x1
006F 50                       push ax
0070 C4 5E 06                 les bx, [bp+0x6]
0073 26 FF 5F 20              call far word [es:bx+0x20]
0077 50                       push ax
0078 B8 01 00                 mov ax, 0x1
007B 50                       push ax
007C C4 5E 06                 les bx, [bp+0x6]
007F 26 FF 5F 30              call far word [es:bx+0x30]
0083 83 C4 06                 add sp, 0x6
0086                          ShowMessage(0497) [es:bx+0xf8] = A great dwarven door appears in the wall.
0093                          RETURN

Functn04: "LAVA"
0000                          BEGIN
0003                          ShowMessage(04C1) [es:bx+0xf8] = Your step into lava is fatal.
0010                          ax = GetHits() [es:bx+0x74]
0017                          DoDamage(ax) [es:bx+0x90]
0021                          RETURN

Functn05: "SECDOORB"
0000                          BEGIN
0003 B8 0D 00                 mov ax, 0xd
0006 50                       push ax
0007 C4 5E 06                 les bx, [bp+0x6]
000A 26 FF 5F 58              call far word [es:bx+0x58]
000E 59                       pop cx
000F 3D 0B 00                 cmp ax, 0xb
0012 73 3A                    jae 0x4e
0014 B8 17 00                 mov ax, 0x17
0017 50                       push ax
0018 C4 5E 06                 les bx, [bp+0x6]
001B 26 FF 5F 64              call far word [es:bx+0x64]
001F 59                       pop cx
0020 0B C0                    or ax, ax
0022 75 2A                    jnz 0x4e
0024 B8 A2 00                 mov ax, 0xa2
0027 50                       push ax
0028 B8 A2 00                 mov ax, 0xa2
002B 50                       push ax
002C C4 5E 06                 les bx, [bp+0x6]
002F 26 FF 5F 54              call far word [es:bx+0x54]
0033 59                       pop cx
0034 59                       pop cx
0035 0B C0                    or ax, ax
0037 75 15                    jnz 0x4e
0039 B8 BE 00                 mov ax, 0xbe
003C 50                       push ax
003D B8 BE 00                 mov ax, 0xbe
0040 50                       push ax
0041 C4 5E 06                 les bx, [bp+0x6]
0044 26 FF 5F 54              call far word [es:bx+0x54]
0048 59                       pop cx
0049 59                       pop cx
004A 0B C0                    or ax, ax
004C 74 4B                    jz 0x99
004E B8 01 00                 mov ax, 0x1
0051 50                       push ax
0052 C4 5E 06                 les bx, [bp+0x6]
0055 26 FF 5F 24              call far word [es:bx+0x24]
0059 50                       push ax
005A C4 5E 06                 les bx, [bp+0x6]
005D 26 FF 5F 20              call far word [es:bx+0x20]
0061 50                       push ax
0062 C4 5E 06                 les bx, [bp+0x6]
0065 26 FF 5F 2C              call far word [es:bx+0x2c]
0069 83 C4 06                 add sp, 0x6
006C C4 5E 06                 les bx, [bp+0x6]
006F 26 FF 5F 24              call far word [es:bx+0x24]
0073 50                       push ax
0074 C4 5E 06                 les bx, [bp+0x6]
0077 26 FF 5F 20              call far word [es:bx+0x20]
007B 50                       push ax
007C B8 01 00                 mov ax, 0x1
007F 50                       push ax
0080 C4 5E 06                 les bx, [bp+0x6]
0083 26 FF 5F 30              call far word [es:bx+0x30]
0087 83 C4 06                 add sp, 0x6
008A                          ShowMessage(04DF) [es:bx+0xf8] = You locate a hidden door!
0097 EB 1D                    jmp 0xb6
0099 33 C0                    xor ax, ax
009B 50                       push ax
009C C4 5E 06                 les bx, [bp+0x6]
009F 26 FF 5F 24              call far word [es:bx+0x24]
00A3 50                       push ax
00A4 C4 5E 06                 les bx, [bp+0x6]
00A7 26 FF 5F 20              call far word [es:bx+0x20]
00AB 50                       push ax
00AC C4 5E 06                 les bx, [bp+0x6]
00AF 26 FF 5F 2C              call far word [es:bx+0x2c]
00B3 83 C4 06                 add sp, 0x6
00B6                          RETURN

Functn06: "LAVALEDG"
0000                          BEGIN
0003                          ShowMessage(04F9) [es:bx+0xf8] = A ledge can be seen across the lava pit.
0010                          RETURN

Functn07: "LAVAPA"
0000                          BEGIN
0003                          ax = CheckState(01, 03, 01) [es:bx+0x4]
0017 74 16                    jz 0x2f
0019                          ax = CheckState(01, 03, 05) [es:bx+0x4]
002D 75 51                    jnz 0x80
002F                          ShowMessage(0522) [es:bx+0xf8] = A platform appears beneath your feet..
003C B8 A8 00                 mov ax, 0xa8
003F 50                       push ax
0040 33 C0                    xor ax, ax
0042 50                       push ax
0043 C4 5E 06                 les bx, [bp+0x6]
0046 26 FF 5F 38              call far word [es:bx+0x38]
004A 59                       pop cx
004B 59                       pop cx
004C B8 01 00                 mov ax, 0x1
004F 50                       push ax
0050 B8 A8 00                 mov ax, 0xa8
0053 50                       push ax
0054 C4 5E 06                 les bx, [bp+0x6]
0057 26 FF 5F 34              call far word [es:bx+0x34]
005B 59                       pop cx
005C 59                       pop cx
005D B8 79 00                 mov ax, 0x79
0060 50                       push ax
0061 33 C0                    xor ax, ax
0063 50                       push ax
0064 C4 5E 06                 les bx, [bp+0x6]
0067 26 FF 5F 38              call far word [es:bx+0x38]
006B 59                       pop cx
006C 59                       pop cx
006D B8 01 00                 mov ax, 0x1
0070 50                       push ax
0071 B8 79 00                 mov ax, 0x79
0074 50                       push ax
0075 C4 5E 06                 les bx, [bp+0x6]
0078 26 FF 5F 34              call far word [es:bx+0x34]
007C 59                       pop cx
007D 59                       pop cx
007E EB 1E                    jmp 0x9e
0080                          ShowMessage(0549) [es:bx+0xf8] = You step into a lava pit and die!
008D                          ax = GetHits() [es:bx+0x74]
0094                          DoDamage(ax) [es:bx+0x90]
009E                          RETURN

Functn08: "LAVAPB"
0000                          BEGIN
0003                          ax = CheckState(01, 03, 02) [es:bx+0x4]
0017 74 16                    jz 0x2f
0019                          ax = CheckState(01, 03, 05) [es:bx+0x4]
002D 75 51                    jnz 0x80
002F                          ShowMessage(056B) [es:bx+0xf8] = A platform appears beneath your feet..
003C B8 98 00                 mov ax, 0x98
003F 50                       push ax
0040 33 C0                    xor ax, ax
0042 50                       push ax
0043 C4 5E 06                 les bx, [bp+0x6]
0046 26 FF 5F 38              call far word [es:bx+0x38]
004A 59                       pop cx
004B 59                       pop cx
004C B8 01 00                 mov ax, 0x1
004F 50                       push ax
0050 B8 98 00                 mov ax, 0x98
0053 50                       push ax
0054 C4 5E 06                 les bx, [bp+0x6]
0057 26 FF 5F 34              call far word [es:bx+0x34]
005B 59                       pop cx
005C 59                       pop cx
005D B8 89 00                 mov ax, 0x89
0060 50                       push ax
0061 33 C0                    xor ax, ax
0063 50                       push ax
0064 C4 5E 06                 les bx, [bp+0x6]
0067 26 FF 5F 38              call far word [es:bx+0x38]
006B 59                       pop cx
006C 59                       pop cx
006D B8 01 00                 mov ax, 0x1
0070 50                       push ax
0071 B8 89 00                 mov ax, 0x89
0074 50                       push ax
0075 C4 5E 06                 les bx, [bp+0x6]
0078 26 FF 5F 34              call far word [es:bx+0x34]
007C 59                       pop cx
007D 59                       pop cx
007E EB 1E                    jmp 0x9e
0080                          ShowMessage(0592) [es:bx+0xf8] = You step into a lava pit and die!
008D                          ax = GetHits() [es:bx+0x74]
0094                          DoDamage(ax) [es:bx+0x90]
009E                          RETURN

Functn09: "LAVAPC"
0000                          BEGIN
0003                          ax = CheckState(01, 03, 03) [es:bx+0x4]
0017 74 16                    jz 0x2f
0019                          ax = CheckState(01, 03, 05) [es:bx+0x4]
002D 75 51                    jnz 0x80
002F                          ShowMessage(05B4) [es:bx+0xf8] = A platform appears beneath your feet..
003C B8 88 00                 mov ax, 0x88
003F 50                       push ax
0040 33 C0                    xor ax, ax
0042 50                       push ax
0043 C4 5E 06                 les bx, [bp+0x6]
0046 26 FF 5F 38              call far word [es:bx+0x38]
004A 59                       pop cx
004B 59                       pop cx
004C B8 01 00                 mov ax, 0x1
004F 50                       push ax
0050 B8 88 00                 mov ax, 0x88
0053 50                       push ax
0054 C4 5E 06                 les bx, [bp+0x6]
0057 26 FF 5F 34              call far word [es:bx+0x34]
005B 59                       pop cx
005C 59                       pop cx
005D B8 99 00                 mov ax, 0x99
0060 50                       push ax
0061 33 C0                    xor ax, ax
0063 50                       push ax
0064 C4 5E 06                 les bx, [bp+0x6]
0067 26 FF 5F 38              call far word [es:bx+0x38]
006B 59                       pop cx
006C 59                       pop cx
006D B8 01 00                 mov ax, 0x1
0070 50                       push ax
0071 B8 99 00                 mov ax, 0x99
0074 50                       push ax
0075 C4 5E 06                 les bx, [bp+0x6]
0078 26 FF 5F 34              call far word [es:bx+0x34]
007C 59                       pop cx
007D 59                       pop cx
007E EB 1E                    jmp 0x9e
0080                          ShowMessage(05DB) [es:bx+0xf8] = You step into a lava pit and die!
008D                          ax = GetHits() [es:bx+0x74]
0094                          DoDamage(ax) [es:bx+0x90]
009E                          RETURN

Functn0A: "LAVAPD"
0000                          BEGIN
0003                          ax = CheckState(01, 03, 04) [es:bx+0x4]
0017 74 16                    jz 0x2f
0019                          ax = CheckState(01, 03, 05) [es:bx+0x4]
002D 75 51                    jnz 0x80
002F                          ShowMessage(05FD) [es:bx+0xf8] = A platform appears beneath your feet..
003C B8 78 00                 mov ax, 0x78
003F 50                       push ax
0040 33 C0                    xor ax, ax
0042 50                       push ax
0043 C4 5E 06                 les bx, [bp+0x6]
0046 26 FF 5F 38              call far word [es:bx+0x38]
004A 59                       pop cx
004B 59                       pop cx
004C B8 01 00                 mov ax, 0x1
004F 50                       push ax
0050 B8 78 00                 mov ax, 0x78
0053 50                       push ax
0054 C4 5E 06                 les bx, [bp+0x6]
0057 26 FF 5F 34              call far word [es:bx+0x34]
005B 59                       pop cx
005C 59                       pop cx
005D B8 A9 00                 mov ax, 0xa9
0060 50                       push ax
0061 33 C0                    xor ax, ax
0063 50                       push ax
0064 C4 5E 06                 les bx, [bp+0x6]
0067 26 FF 5F 38              call far word [es:bx+0x38]
006B 59                       pop cx
006C 59                       pop cx
006D B8 01 00                 mov ax, 0x1
0070 50                       push ax
0071 B8 A9 00                 mov ax, 0xa9
0074 50                       push ax
0075 C4 5E 06                 les bx, [bp+0x6]
0078 26 FF 5F 34              call far word [es:bx+0x34]
007C 59                       pop cx
007D 59                       pop cx
007E EB 1E                    jmp 0x9e
0080                          ShowMessage(0624) [es:bx+0xf8] = You step into a lava pit and die!
008D                          ax = GetHits() [es:bx+0x74]
0094                          DoDamage(ax) [es:bx+0x90]
009E                          RETURN

Functn0B: "LAVASWA"
0000                          BEGIN
0003                          ShowMessage(0646) [es:bx+0xf8] = The wall bursts with color!
0010                          ShowMessage(0662) [es:bx+0xf8] = In the distance you hear a platform moving.
001D                          SetState(01, 03, 01) [es:bx]
0032                          RETURN

Functn0C: "LAVASWB"
0000                          BEGIN
0003                          ShowMessage(068E) [es:bx+0xf8] = The wall bursts with color!
0010                          ShowMessage(06AA) [es:bx+0xf8] = In the distance you hear a platform moving.
001D                          SetState(01, 03, 02) [es:bx]
0032                          RETURN

Functn0D: "LAVASWC"
0000                          BEGIN
0003                          ShowMessage(06D6) [es:bx+0xf8] = The wall bursts with color!
0010                          ShowMessage(06F2) [es:bx+0xf8] = In the distance you hear a platform moving.
001D                          SetState(01, 03, 03) [es:bx]
0032                          RETURN

Functn0E: "LAVASWD"
0000                          BEGIN
0003                          ShowMessage(071E) [es:bx+0xf8] = The wall bursts with color!
0010                          ShowMessage(073A) [es:bx+0xf8] = In the distance you hear a platform moving.
001D                          ShowMessage(0766) [es:bx+0xf8] = Perhaps there is a way for you to join your party.
002A                          SetState(01, 03, 04) [es:bx]
003F                          RETURN

Functn0F: "KINGROOM"
0000                          BEGIN
0003                          ShowMessage(0799) [es:bx+0xf8] = You enter a magnificently ornamented room, bedecked with jewels and the finely crafted metalworks of dwarf craftsmen.
0010                          ShowMessage(080F) [es:bx+0xf8] = In a small chair in the center of this royal treasure sits the Dwarf King.
001D                          RETURN

Functn10: "DWARKING"
0000                          BEGIN
0003                          ax = HasItem(F4) [es:bx+0x50]
0011 75 4E                    jnz 0x61
0013                          ShowPortrait(001C) [es:bx+0xfc]
0020                          ShowMessage(085A) [es:bx+0xf8] = The Dwarf King nods.
002D                          ShowMessage(086F) [es:bx+0xf8] = 'Welcome strangers! 
003A                          ShowMessage(0884) [es:bx+0xf8] = I have a quest for you, if you are brave enough!
0047                          ShowMessage(08B5) [es:bx+0xf8] = Beyond the keyhole lava lies a gem of great value, stolen by a fiercesome Dragon.
0054                          ShowMessage(0907) [es:bx+0xf8] = Keep the gem if you like, as our token of friendship. We ask only that you destroy this vile creature who blackmails us in return for peace.'
0061                          RETURN

Functn11: "FLEXSWOR"
0000                          BEGIN
0003                          ShowPortrait(002C) [es:bx+0xfc]
0010                          ax = HasItem(09) [es:bx+0x50]
001E 75 6D                    jnz 0x8d
0020                          ax = HasItem(F0) [es:bx+0x50]
002E 74 41                    jz 0x71
0030                          ShowMessage(0995) [es:bx+0xf8] = The dwarf takes the Flex Metal and smiles broadly. 'No greater pleasure can a dwarf blacksmith have than to test the powers of a new metal.'
003D                          ShowMessage(0A22) [es:bx+0xf8] = After a few hours working the metal, she holds up a brilliant blue sword.
004A                          ShowMessage(0A6C) [es:bx+0xf8] = 'There!  My finest weapon, made from your Flex Metal.  I dub it The Wind Sword!  May it destroy your enemies at first blow!'
0057 B8 F0 00                 mov ax, 0xf0
005A 50                       push ax
005B C4 5E 06                 les bx, [bp+0x6]
005E 26 FF 5F 4C              call far word [es:bx+0x4c]
0062 59                       pop cx
0063 B8 09 00                 mov ax, 0x9
0066 50                       push ax
0067 C4 5E 06                 les bx, [bp+0x6]
006A 26 FF 5F 48              call far word [es:bx+0x48]
006E 59                       pop cx
006F EB 1A                    jmp 0x8b
0071                          ShowMessage(0AE9) [es:bx+0xf8] = The dwarf blacksmith cuts down the furnace, then turns to greet you. 
007E                          ShowMessage(0B2F) [es:bx+0xf8] = 'I am a wizard swordmaker, ready to make the finest weapons from your valuable metals.  What may I build for you?'
008B EB 34                    jmp 0xc1
008D                          ShowMessage(0BA2) [es:bx+0xf8] = The dwarf blacksmith pauses briefly from her work.
009A                          ShowMessage(0BD5) [es:bx+0xf8] = 'I see you have returned!'  An expression of worry crosses her face.  'Oh, I hope The Wind Sword has given you no trouble.'
00A7                          ShowMessage(0C51) [es:bx+0xf8] = She then notices the great blue sword.  'Ah, it's in fine shape!
00B4                          ShowMessage(0C92) [es:bx+0xf8] = If you find other types of metals, I will gladly make you another weapon!'
00C1                          RETURN

Functn12: "BLAKSMTH"
0000                          BEGIN
0003                          ShowMessage(0CDD) [es:bx+0xf8] = The room you enter contains furnaces, hammers and anvils.
0010                          ShowMessage(0D17) [es:bx+0xf8] = In a corner is a dwarf blacksmith, hard at work on her latest golden creation.
001D                          RETURN

Functn13: "CYCLQUST"
0000                          BEGIN
0003                          ShowPortrait(002C) [es:bx+0xfc]
0010                          ax = HasItem(F3) [es:bx+0x50]
001E 74 03                    jz 0x23
0020 E9 BA 00                 jmp 0xdd
0023                          ax = HasItem(F1) [es:bx+0x50]
0031 74 66                    jz 0x99
0033                          ShowMessage(0D66) [es:bx+0xf8] = A mean, twisted smile appears across the face of the dwarf blacksmith.
0040                          ShowMessage(0DAD) [es:bx+0xf8] = 'You have killed the cyclop!  My gold caves are won!
004D                          ShowMessage(0DE2) [es:bx+0xf8] = Hmmph.  It is my debt to repay you.  And I shall!'
005A                          ShowMessage(0E15) [es:bx+0xf8] = A few hours pass as the blacksmith weaves a magnificent treasure from golden threads.  Then she appears again.
0067                          ShowMessage(0E84) [es:bx+0xf8] = 'Here.  My proudest work!  A golden boat that can ride the rainbows.  May you find treasure wherever you go.'
0074                          ShowMessage(0EF2) [es:bx+0xf8] = Then she scoots away.
0081 B8 F1 00                 mov ax, 0xf1
0084 50                       push ax
0085 C4 5E 06                 les bx, [bp+0x6]
0088 26 FF 5F 4C              call far word [es:bx+0x4c]
008C 59                       pop cx
008D B8 F3 00                 mov ax, 0xf3
0090 50                       push ax
0091 C4 5E 06                 les bx, [bp+0x6]
0094 26 FF 5F 48              call far word [es:bx+0x48]
0098 59                       pop cx
0099                          ax = HasItem(F1) [es:bx+0x50]
00A7 75 34                    jnz 0xdd
00A9                          ShowMessage(0F08) [es:bx+0xf8] = The old dwarf blacksmith at first does not hear you approach. Then she senses your presence and wheels on you. 
00B6                          ShowMessage(0F78) [es:bx+0xf8] = 'A mean trick you play on a wise one!  No matter.  No doubt you're looking for another golden trinket of mine.
00C3                          ShowMessage(0FE7) [es:bx+0xf8] = Well, I will not give you any of my creations.  Never!
00D0                          ShowMessage(101E) [es:bx+0xf8] = Unless, hmmm, Unless you are able to rid my gold caves of a horrible Cyclop! He fancies himself King of the Cyclops.'
00DD                          RETURN

Functn14: "MNRPLATC"
0000                          BEGIN
0003                          ShowPortrait(0023) [es:bx+0xfc]
0010 B8 6F 00                 mov ax, 0x6f
0013 50                       push ax
0014 B8 02 00                 mov ax, 0x2
0017 50                       push ax
0018 C4 5E 06                 les bx, [bp+0x6]
001B 26 FF 5F 04              call far word [es:bx+0x4]
001F 59                       pop cx
0020 59                       pop cx
0021 0B C0                    or ax, ax
0023 74 6A                    jz 0x8f
0025                          ShowMessage(1094) [es:bx+0xf8] = The dwarf miner greets you with youthful enthusiasm.
0032 B8 6B 00                 mov ax, 0x6b
0035 50                       push ax
0036 B8 02 00                 mov ax, 0x2
0039 50                       push ax
003A C4 5E 06                 les bx, [bp+0x6]
003D 26 FF 5F 04              call far word [es:bx+0x4]
0041 59                       pop cx
0042 59                       pop cx
0043 0B C0                    or ax, ax
0045 75 46                    jnz 0x8d
0047                          SetState(02, 6B, 01) [es:bx]
005C                          ShowMessage(10C9) [es:bx+0xf8] = You show signs of entering my caves!  I thank-you for clearing my mines and repay you with treasure.
0069 B8 BA 00                 mov ax, 0xba
006C 50                       push ax
006D C4 5E 06                 les bx, [bp+0x6]
0070 26 FF 5F 48              call far word [es:bx+0x48]
0074 59                       pop cx
0075 B8 BA 00                 mov ax, 0xba
0078 50                       push ax
0079 C4 5E 06                 les bx, [bp+0x6]
007C 26 FF 5F 48              call far word [es:bx+0x48]
0080 59                       pop cx
0081 B8 BA 00                 mov ax, 0xba
0084 50                       push ax
0085 C4 5E 06                 les bx, [bp+0x6]
0088 26 FF 5F 48              call far word [es:bx+0x48]
008C 59                       pop cx
008D EB 6C                    jmp 0xfb
008F                          ax = HasItem(D7) [es:bx+0x50]
009D 74 1C                    jz 0xbb
009F                          ShowMessage(112E) [es:bx+0xf8] = The dwarf miner smiles as you approach.
00AC                          ShowMessage(1156) [es:bx+0xf8] = 'Have you found my cave yet?  It is by the water's edge.'
00B9 EB 40                    jmp 0xfb
00BB                          ShowMessage(1190) [es:bx+0xf8] = An apprentice dwarf miner notices your arrival.
00C8                          ShowMessage(11C0) [es:bx+0xf8] = 'Adventurers!  At last!  I've heard tales from the elders about your deeds.  I, too, have a cave, well hidden beyond the edges of the waters.
00D5                          ShowMessage(124E) [es:bx+0xf8] = Monsters have forced me from my home. I am not strong enough to fight them.
00E2                          ShowMessage(129A) [es:bx+0xf8] = Perhaps, if I give you the key to my small cave, you will do me a favor. Then I may repay you well some day.'
00EF B8 D7 00                 mov ax, 0xd7
00F2 50                       push ax
00F3 C4 5E 06                 les bx, [bp+0x6]
00F6 26 FF 5F 48              call far word [es:bx+0x48]
00FA 59                       pop cx
00FB                          RETURN

Functn15: "NSTYOGRE"
0000                          BEGIN
0003                          SetEncData(14, 01) [es:bx+0xd4]
0015                          SetEncData(14, 02) [es:bx+0xd4]
0027                          SetEncData(14, 03) [es:bx+0xd4]
0039                          SetEncData(14, 04) [es:bx+0xd4]
004B                          SetEncData(14, 05) [es:bx+0xd4]
005D                          SetEncData(14, 06) [es:bx+0xd4]
006F                          RETURN

Functn16: "OPENER"
0000                          BEGIN
0003                          SetState(01, 03, 05) [es:bx]
0018                          ShowMessage(1308) [es:bx+0xf8] = All the east side platforms appear to be up.
0025 B8 A9 00                 mov ax, 0xa9
0028 50                       push ax
0029 33 C0                    xor ax, ax
002B 50                       push ax
002C C4 5E 06                 les bx, [bp+0x6]
002F 26 FF 5F 38              call far word [es:bx+0x38]
0033 59                       pop cx
0034 59                       pop cx
0035 B8 01 00                 mov ax, 0x1
0038 50                       push ax
0039 B8 A9 00                 mov ax, 0xa9
003C 50                       push ax
003D C4 5E 06                 les bx, [bp+0x6]
0040 26 FF 5F 34              call far word [es:bx+0x34]
0044 59                       pop cx
0045 59                       pop cx
0046 B8 99 00                 mov ax, 0x99
0049 50                       push ax
004A 33 C0                    xor ax, ax
004C 50                       push ax
004D C4 5E 06                 les bx, [bp+0x6]
0050 26 FF 5F 38              call far word [es:bx+0x38]
0054 59                       pop cx
0055 59                       pop cx
0056 B8 01 00                 mov ax, 0x1
0059 50                       push ax
005A B8 99 00                 mov ax, 0x99
005D 50                       push ax
005E C4 5E 06                 les bx, [bp+0x6]
0061 26 FF 5F 34              call far word [es:bx+0x34]
0065 59                       pop cx
0066 59                       pop cx
0067 B8 89 00                 mov ax, 0x89
006A 50                       push ax
006B 33 C0                    xor ax, ax
006D 50                       push ax
006E C4 5E 06                 les bx, [bp+0x6]
0071 26 FF 5F 38              call far word [es:bx+0x38]
0075 59                       pop cx
0076 59                       pop cx
0077 B8 01 00                 mov ax, 0x1
007A 50                       push ax
007B B8 89 00                 mov ax, 0x89
007E 50                       push ax
007F C4 5E 06                 les bx, [bp+0x6]
0082 26 FF 5F 34              call far word [es:bx+0x34]
0086 59                       pop cx
0087 59                       pop cx
0088 B8 79 00                 mov ax, 0x79
008B 50                       push ax
008C 33 C0                    xor ax, ax
008E 50                       push ax
008F C4 5E 06                 les bx, [bp+0x6]
0092 26 FF 5F 38              call far word [es:bx+0x38]
0096 59                       pop cx
0097 59                       pop cx
0098 B8 01 00                 mov ax, 0x1
009B 50                       push ax
009C B8 79 00                 mov ax, 0x79
009F 50                       push ax
00A0 C4 5E 06                 les bx, [bp+0x6]
00A3 26 FF 5F 34              call far word [es:bx+0x34]
00A7 59                       pop cx
00A8 59                       pop cx
00A9                          RETURN

Functn17: "OPENEE"
0000                          BEGIN
0003                          ax = CheckState(01, 03, 05) [es:bx+0x4]
0017 75 34                    jnz 0x4d
0019 B8 03 00                 mov ax, 0x3
001C 50                       push ax
001D C4 5E 06                 les bx, [bp+0x6]
0020 26 FF 5F 20              call far word [es:bx+0x20]
0024 50                       push ax
0025 B8 01 00                 mov ax, 0x1
0028 50                       push ax
0029 C4 5E 06                 les bx, [bp+0x6]
002C 26 FF 5F 30              call far word [es:bx+0x30]
0030 83 C4 06                 add sp, 0x6
0033 B8 01 00                 mov ax, 0x1
0036 50                       push ax
0037 B8 03 00                 mov ax, 0x3
003A 50                       push ax
003B C4 5E 06                 les bx, [bp+0x6]
003E 26 FF 5F 20              call far word [es:bx+0x20]
0042 50                       push ax
0043 C4 5E 06                 les bx, [bp+0x6]
0046 26 FF 5F 2C              call far word [es:bx+0x2c]
004A 83 C4 06                 add sp, 0x6
004D                          RETURN

Functn18: "MANTICOR"
0000                          BEGIN
0003                          SetEncData(23, 01) [es:bx+0xd4]
0015                          SetEncData(24, 02) [es:bx+0xd4]
0027                          SetEncData(24, 03) [es:bx+0xd4]
0039                          SetEncData(23, 04) [es:bx+0xd4]
004B                          SetEncData(19, 05) [es:bx+0xd4]
005D                          SetEncData(19, 06) [es:bx+0xd4]
006F                          RETURN

Functn19: "BASILISK"
0000                          BEGIN
0003                          SetEncData(11, 01) [es:bx+0xd4]
0015                          SetEncData(11, 02) [es:bx+0xd4]
0027                          SetEncData(12, 03) [es:bx+0xd4]
0039                          SetEncData(12, 04) [es:bx+0xd4]
004B                          SetEncData(13, 05) [es:bx+0xd4]
005D                          SetEncData(13, 06) [es:bx+0xd4]
006F                          RETURN

Functn1A: "KINGGOBL"
0000                          BEGIN
0003                          SetEncData(04, 01) [es:bx+0xd4]
0015                          SetEncData(04, 02) [es:bx+0xd4]
0027                          SetEncData(04, 03) [es:bx+0xd4]
0039                          SetEncData(04, 04) [es:bx+0xd4]
004B                          SetEncData(06, 05) [es:bx+0xd4]
005D                          SetEncData(06, 06) [es:bx+0xd4]
006F                          RETURN

Functn1B: "DRAGON"
0000                          BEGIN
0003                          SetEncData(06, 01) [es:bx+0xd4]
0015                          SetEncData(06, 02) [es:bx+0xd4]
0027                          SetEncData(19, 03) [es:bx+0xd4]
0039                          SetEncData(19, 04) [es:bx+0xd4]
004B                          SetEncData(1B, 05) [es:bx+0xd4]
005D                          SetEncData(13, 06) [es:bx+0xd4]
006F                          ax = HasItem(F4) [es:bx+0x50]
007D 74 22                    jz 0xa1
007F                          SetTreasureData(07D0, 00, 00, 00, C6, B7) [es:bx+0xd8]
009F EB 2F                    jmp 0xd0
00A1                          ShowMessage(1335) [es:bx+0xf8] = A glowing red gem casts a beam from under the dragon's lair.
00AE                          SetTreasureData(2328, 00, 14, D0, D0, F4) [es:bx+0xd8]
00D0                          RETURN

Functn1C: "KEYCLUEA"
0000                          BEGIN
0003                          ShowMessage(1372) [es:bx+0xf8] = A collection of runes reveals a clue -- 
0010                          ShowRunes(5013) [es:bx+0xf4] = The Keyhole Lava lies at the center of the Kingdom.
001D                          ShowRunes(5013) [es:bx+0xf4] = Activate the switches to the west one at a time to move a party from south to north.
002A                          RETURN

Functn1D: "KEYCLUEB"
0000                          BEGIN
0003                          ShowMessage(1424) [es:bx+0xf8] = A faint message written in dust -- 
0010                          ShowRunes(5014) [es:bx+0xf4] = The Keyhole Lava lies at the center of the Kingdom.
001D                          ShowRunes(5014) [es:bx+0xf4] = Repeat the sequence that moved a party south to north to move  a party north to south.
002A                          RETURN

Functn1E: "KEYCLUEC"
0000                          BEGIN
0003                          ShowMessage(14D3) [es:bx+0xf8] = A note is found behind a rock -- 
0010                          ShowRunes(5014) [es:bx+0xf4] = The one who switches a party across the Keyhole Lava may join the party at the south end of a second crossing.
001D                          RETURN

Functn1F: "GATEA"
0000                          BEGIN
0003                          ShowMessage(1564) [es:bx+0xf8] = Distant bellows from gruesome monsters echo through the cavern.
0010                          GoMap(02, 30, 02, 38) [es:bx+0xbc]
002B                          RETURN

Functn20: "CYCLKEY"
0000                          BEGIN
0003                          ax = HasItem(D6) [es:bx+0x50]
0011 74 0F                    jz 0x22
0013                          ShowMessage(15A4) [es:bx+0xf8] = The room has been emptied.
0020 EB 19                    jmp 0x3b
0022 B8 D6 00                 mov ax, 0xd6
0025 50                       push ax
0026 C4 5E 06                 les bx, [bp+0x6]
0029 26 FF 5F 48              call far word [es:bx+0x48]
002D 59                       pop cx
002E                          ShowMessage(15BF) [es:bx+0xf8] = You find a key to the Cyclop's Mine on the floor.
003B                          RETURN

Functn21: "SECDOORC"
0000                          BEGIN
0003 C4 5E 06                 les bx, [bp+0x6]
0006 26 FF 5F 78              call far word [es:bx+0x78]
000A 3D 04 00                 cmp ax, 0x4
000D 74 03                    jz 0x12
000F E9 B6 00                 jmp 0xc8
0012 B8 0D 00                 mov ax, 0xd
0015 50                       push ax
0016 C4 5E 06                 les bx, [bp+0x6]
0019 26 FF 5F 58              call far word [es:bx+0x58]
001D 59                       pop cx
001E 3D 08 00                 cmp ax, 0x8
0021 73 3A                    jae 0x5d
0023 B8 17 00                 mov ax, 0x17
0026 50                       push ax
0027 C4 5E 06                 les bx, [bp+0x6]
002A 26 FF 5F 64              call far word [es:bx+0x64]
002E 59                       pop cx
002F 0B C0                    or ax, ax
0031 75 2A                    jnz 0x5d
0033 B8 A2 00                 mov ax, 0xa2
0036 50                       push ax
0037 B8 A2 00                 mov ax, 0xa2
003A 50                       push ax
003B C4 5E 06                 les bx, [bp+0x6]
003E 26 FF 5F 54              call far word [es:bx+0x54]
0042 59                       pop cx
0043 59                       pop cx
0044 0B C0                    or ax, ax
0046 75 15                    jnz 0x5d
0048 B8 BE 00                 mov ax, 0xbe
004B 50                       push ax
004C B8 BE 00                 mov ax, 0xbe
004F 50                       push ax
0050 C4 5E 06                 les bx, [bp+0x6]
0053 26 FF 5F 54              call far word [es:bx+0x54]
0057 59                       pop cx
0058 59                       pop cx
0059 0B C0                    or ax, ax
005B 74 4B                    jz 0xa8
005D B8 01 00                 mov ax, 0x1
0060 50                       push ax
0061 C4 5E 06                 les bx, [bp+0x6]
0064 26 FF 5F 24              call far word [es:bx+0x24]
0068 50                       push ax
0069 C4 5E 06                 les bx, [bp+0x6]
006C 26 FF 5F 20              call far word [es:bx+0x20]
0070 50                       push ax
0071 C4 5E 06                 les bx, [bp+0x6]
0074 26 FF 5F 2C              call far word [es:bx+0x2c]
0078 83 C4 06                 add sp, 0x6
007B C4 5E 06                 les bx, [bp+0x6]
007E 26 FF 5F 24              call far word [es:bx+0x24]
0082 50                       push ax
0083 C4 5E 06                 les bx, [bp+0x6]
0086 26 FF 5F 20              call far word [es:bx+0x20]
008A 50                       push ax
008B B8 01 00                 mov ax, 0x1
008E 50                       push ax
008F C4 5E 06                 les bx, [bp+0x6]
0092 26 FF 5F 30              call far word [es:bx+0x30]
0096 83 C4 06                 add sp, 0x6
0099                          ShowMessage(15F1) [es:bx+0xf8] = You found a hidden door!
00A6 EB 1D                    jmp 0xc5
00A8 33 C0                    xor ax, ax
00AA 50                       push ax
00AB C4 5E 06                 les bx, [bp+0x6]
00AE 26 FF 5F 24              call far word [es:bx+0x24]
00B2 50                       push ax
00B3 C4 5E 06                 les bx, [bp+0x6]
00B6 26 FF 5F 20              call far word [es:bx+0x20]
00BA 50                       push ax
00BB C4 5E 06                 les bx, [bp+0x6]
00BE 26 FF 5F 2C              call far word [es:bx+0x2c]
00C2 83 C4 06                 add sp, 0x6
00C5 E9 B3 00                 jmp 0x17b
00C8 B8 0D 00                 mov ax, 0xd
00CB 50                       push ax
00CC C4 5E 06                 les bx, [bp+0x6]
00CF 26 FF 5F 58              call far word [es:bx+0x58]
00D3 59                       pop cx
00D4 3D 0B 00                 cmp ax, 0xb
00D7 73 3A                    jae 0x113
00D9 B8 17 00                 mov ax, 0x17
00DC 50                       push ax
00DD C4 5E 06                 les bx, [bp+0x6]
00E0 26 FF 5F 64              call far word [es:bx+0x64]
00E4 59                       pop cx
00E5 0B C0                    or ax, ax
00E7 75 2A                    jnz 0x113
00E9 B8 A2 00                 mov ax, 0xa2
00EC 50                       push ax
00ED B8 A2 00                 mov ax, 0xa2
00F0 50                       push ax
00F1 C4 5E 06                 les bx, [bp+0x6]
00F4 26 FF 5F 54              call far word [es:bx+0x54]
00F8 59                       pop cx
00F9 59                       pop cx
00FA 0B C0                    or ax, ax
00FC 75 15                    jnz 0x113
00FE B8 BE 00                 mov ax, 0xbe
0101 50                       push ax
0102 B8 BE 00                 mov ax, 0xbe
0105 50                       push ax
0106 C4 5E 06                 les bx, [bp+0x6]
0109 26 FF 5F 54              call far word [es:bx+0x54]
010D 59                       pop cx
010E 59                       pop cx
010F 0B C0                    or ax, ax
0111 74 4B                    jz 0x15e
0113 B8 01 00                 mov ax, 0x1
0116 50                       push ax
0117 C4 5E 06                 les bx, [bp+0x6]
011A 26 FF 5F 24              call far word [es:bx+0x24]
011E 50                       push ax
011F C4 5E 06                 les bx, [bp+0x6]
0122 26 FF 5F 20              call far word [es:bx+0x20]
0126 50                       push ax
0127 C4 5E 06                 les bx, [bp+0x6]
012A 26 FF 5F 2C              call far word [es:bx+0x2c]
012E 83 C4 06                 add sp, 0x6
0131 C4 5E 06                 les bx, [bp+0x6]
0134 26 FF 5F 24              call far word [es:bx+0x24]
0138 50                       push ax
0139 C4 5E 06                 les bx, [bp+0x6]
013C 26 FF 5F 20              call far word [es:bx+0x20]
0140 50                       push ax
0141 B8 01 00                 mov ax, 0x1
0144 50                       push ax
0145 C4 5E 06                 les bx, [bp+0x6]
0148 26 FF 5F 30              call far word [es:bx+0x30]
014C 83 C4 06                 add sp, 0x6
014F                          ShowMessage(160A) [es:bx+0xf8] = You found a hidden door!
015C EB 1D                    jmp 0x17b
015E 33 C0                    xor ax, ax
0160 50                       push ax
0161 C4 5E 06                 les bx, [bp+0x6]
0164 26 FF 5F 24              call far word [es:bx+0x24]
0168 50                       push ax
0169 C4 5E 06                 les bx, [bp+0x6]
016C 26 FF 5F 20              call far word [es:bx+0x20]
0170 50                       push ax
0171 C4 5E 06                 les bx, [bp+0x6]
0174 26 FF 5F 2C              call far word [es:bx+0x2c]
0178 83 C4 06                 add sp, 0x6
017B                          RETURN

Functn25: "FNTNATTR"
0000                          BEGIN
0003 B8 56 00                 mov ax, 0x56
0006 50                       push ax
0007 B8 02 00                 mov ax, 0x2
000A 50                       push ax
000B C4 5E 06                 les bx, [bp+0x6]
000E 26 FF 5F 04              call far word [es:bx+0x4]
0012 59                       pop cx
0013 59                       pop cx
0014 0B C0                    or ax, ax
0016 75 54                    jnz 0x6c
0018                          SetState(02, 56, 01) [es:bx]
002D                          ShowPortrait(0042) [es:bx+0xfc]
003A B8 02 00                 mov ax, 0x2
003D 50                       push ax
003E 33 C0                    xor ax, ax
0040 50                       push ax
0041 C4 5E 06                 les bx, [bp+0x6]
0044 26 FF 9F A8 00           call far word [es:bx+0xa8]
0049 59                       pop cx
004A 59                       pop cx
004B B8 01 00                 mov ax, 0x1
004E 50                       push ax
004F B8 01 00                 mov ax, 0x1
0052 50                       push ax
0053 C4 5E 06                 les bx, [bp+0x6]
0056 26 FF 9F A8 00           call far word [es:bx+0xa8]
005B 59                       pop cx
005C 59                       pop cx
005D                          ShowMessage(1623) [es:bx+0xf8] = You drink from the Fountain of Attributes and feel your powers greatly increase.
006A EB 1A                    jmp 0x86
006C                          ShowPortrait(0042) [es:bx+0xfc]
0079                          ShowMessage(1674) [es:bx+0xf8] = The waters of the Fountain of Attributes quench your thirst but do not otherwise affect you.
0086                          RETURN

Functn26: "NSTYGIAN"
0000                          BEGIN
0003                          SetEncData(1E, 01) [es:bx+0xd4]
0015                          SetEncData(1E, 02) [es:bx+0xd4]
0027                          SetEncData(1E, 03) [es:bx+0xd4]
0039                          SetEncData(1E, 04) [es:bx+0xd4]
004B                          SetEncData(1E, 05) [es:bx+0xd4]
005D                          SetEncData(1E, 06) [es:bx+0xd4]
006F                          RETURN

Functn27: "MAINGIAN"
0000                          BEGIN
0003                          SetEncData(1F, 01) [es:bx+0xd4]
0015                          SetEncData(1F, 02) [es:bx+0xd4]
0027                          SetEncData(1E, 03) [es:bx+0xd4]
0039                          SetEncData(1E, 04) [es:bx+0xd4]
004B                          SetEncData(20, 05) [es:bx+0xd4]
005D                          SetEncData(1F, 06) [es:bx+0xd4]
006F                          RETURN

Functn2C: "TOELVES"
0000                          BEGIN
0003                          ShowMessage(16D1) [es:bx+0xf8] = A passageway leads up to the elfin lands.
0010                          GoMap(01, 7F, 01, 37) [es:bx+0xbc]
002B                          RETURN

03FC: The River of Eternity taps your life energy.
0429: You have died.
0438: Only the bravest adventurers explore the life-devouring River of Eternity for hidden passages.
0497: A great dwarven door appears in the wall.
04C1: Your step into lava is fatal.
04DF: You locate a hidden door!
04F9: A ledge can be seen across the lava pit.
0522: A platform appears beneath your feet..
0549: You step into a lava pit and die!
056B: A platform appears beneath your feet..
0592: You step into a lava pit and die!
05B4: A platform appears beneath your feet..
05DB: You step into a lava pit and die!
05FD: A platform appears beneath your feet..
0624: You step into a lava pit and die!
0646: The wall bursts with color!
0662: In the distance you hear a platform moving.
068E: The wall bursts with color!
06AA: In the distance you hear a platform moving.
06D6: The wall bursts with color!
06F2: In the distance you hear a platform moving.
071E: The wall bursts with color!
073A: In the distance you hear a platform moving.
0766: Perhaps there is a way for you to join your party.
0799: You enter a magnificently ornamented room, bedecked with jewels and the finely crafted metalworks of dwarf craftsmen.
080F: In a small chair in the center of this royal treasure sits the Dwarf King.
085A: The Dwarf King nods.
086F: 'Welcome strangers! 
0884: I have a quest for you, if you are brave enough!
08B5: Beyond the keyhole lava lies a gem of great value, stolen by a fiercesome Dragon.
0907: Keep the gem if you like, as our token of friendship. We ask only that you destroy this vile creature who blackmails us in return for peace.'
0995: The dwarf takes the Flex Metal and smiles broadly. 'No greater pleasure can a dwarf blacksmith have than to test the powers of a new metal.'
0A22: After a few hours working the metal, she holds up a brilliant blue sword.
0A6C: 'There!  My finest weapon, made from your Flex Metal.  I dub it The Wind Sword!  May it destroy your enemies at first blow!'
0AE9: The dwarf blacksmith cuts down the furnace, then turns to greet you. 
0B2F: 'I am a wizard swordmaker, ready to make the finest weapons from your valuable metals.  What may I build for you?'
0BA2: The dwarf blacksmith pauses briefly from her work.
0BD5: 'I see you have returned!'  An expression of worry crosses her face.  'Oh, I hope The Wind Sword has given you no trouble.'
0C51: She then notices the great blue sword.  'Ah, it's in fine shape!
0C92: If you find other types of metals, I will gladly make you another weapon!'
0CDD: The room you enter contains furnaces, hammers and anvils.
0D17: In a corner is a dwarf blacksmith, hard at work on her latest golden creation.
0D66: A mean, twisted smile appears across the face of the dwarf blacksmith.
0DAD: 'You have killed the cyclop!  My gold caves are won!
0DE2: Hmmph.  It is my debt to repay you.  And I shall!'
0E15: A few hours pass as the blacksmith weaves a magnificent treasure from golden threads.  Then she appears again.
0E84: 'Here.  My proudest work!  A golden boat that can ride the rainbows.  May you find treasure wherever you go.'
0EF2: Then she scoots away.
0F08: The old dwarf blacksmith at first does not hear you approach. Then she senses your presence and wheels on you. 
0F78: 'A mean trick you play on a wise one!  No matter.  No doubt you're looking for another golden trinket of mine.
0FE7: Well, I will not give you any of my creations.  Never!
101E: Unless, hmmm, Unless you are able to rid my gold caves of a horrible Cyclop! He fancies himself King of the Cyclops.'
1094: The dwarf miner greets you with youthful enthusiasm.
10C9: You show signs of entering my caves!  I thank-you for clearing my mines and repay you with treasure.
112E: The dwarf miner smiles as you approach.
1156: 'Have you found my cave yet?  It is by the water's edge.'
1190: An apprentice dwarf miner notices your arrival.
11C0: 'Adventurers!  At last!  I've heard tales from the elders about your deeds.  I, too, have a cave, well hidden beyond the edges of the waters.
124E: Monsters have forced me from my home. I am not strong enough to fight them.
129A: Perhaps, if I give you the key to my small cave, you will do me a favor. Then I may repay you well some day.'
1308: All the east side platforms appear to be up.
1335: A glowing red gem casts a beam from under the dragon's lair.
1372: A collection of runes reveals a clue -- 
139B: The Keyhole Lava lies at the center of the Kingdom.
13CF: Activate the switches to the west one at a time to move a party from south to north.
1424: A faint message written in dust -- 
1448: The Keyhole Lava lies at the center of the Kingdom.
147C: Repeat the sequence that moved a party south to north to move  a party north to south.
14D3: A note is found behind a rock -- 
14F5: The one who switches a party across the Keyhole Lava may join the party at the south end of a second crossing.
1564: Distant bellows from gruesome monsters echo through the cavern.
15A4: The room has been emptied.
15BF: You find a key to the Cyclop's Mine on the floor.
15F1: You found a hidden door!
160A: You found a hidden door!
1623: You drink from the Fountain of Attributes and feel your powers greatly increase.
1674: The waters of the Fountain of Attributes quench your thirst but do not otherwise affect you.
16D1: A passageway leads up to the elfin lands.
