Functn01: "VOID"
0000                          BEGIN
0003                          ShowMessage(03FC) = The Ageless Void swallows you whole.
0010                          ShowMessage(0421) = Time freezes forever in your mind.  To the rest of the world, you are dead.
001D C4 5E 06                 les bx, [bp+0x6]
0020 26 FF 5F 74              call far word [es:bx+0x74]
0024 50                       push ax
0025 C4 5E 06                 les bx, [bp+0x6]
0028 26 FF 9F 90 00           call far word [es:bx+0x90]
002D 59                       pop cx
002E                          RETURN

Functn02: "ISLEETRN"
0000                          BEGIN
0003                          ShowMessage(046D) = The Island of Eternity sits at the edge of time.
0010                          ShowMessage(049E) = Along its edge is the Ageless Void, a vastness where time does not exist.
001D                          RETURN

Functn03: "ENCSELF"
0000                          BEGIN
0003 B8 19 00                 mov ax, 0x19
0006 50                       push ax
0007 B8 01 00                 mov ax, 0x1
000A 50                       push ax
000B C4 5E 06                 les bx, [bp+0x6]
000E 26 FF 9F D4 00           call far word [es:bx+0xd4]
0013 59                       pop cx
0014 59                       pop cx
0015 B8 19 00                 mov ax, 0x19
0018 50                       push ax
0019 B8 02 00                 mov ax, 0x2
001C 50                       push ax
001D C4 5E 06                 les bx, [bp+0x6]
0020 26 FF 9F D4 00           call far word [es:bx+0xd4]
0025 59                       pop cx
0026 59                       pop cx
0027 B8 19 00                 mov ax, 0x19
002A 50                       push ax
002B B8 03 00                 mov ax, 0x3
002E 50                       push ax
002F C4 5E 06                 les bx, [bp+0x6]
0032 26 FF 9F D4 00           call far word [es:bx+0xd4]
0037 59                       pop cx
0038 59                       pop cx
0039 B8 19 00                 mov ax, 0x19
003C 50                       push ax
003D B8 04 00                 mov ax, 0x4
0040 50                       push ax
0041 C4 5E 06                 les bx, [bp+0x6]
0044 26 FF 9F D4 00           call far word [es:bx+0xd4]
0049 59                       pop cx
004A 59                       pop cx
004B B8 1A 00                 mov ax, 0x1a
004E 50                       push ax
004F B8 05 00                 mov ax, 0x5
0052 50                       push ax
0053 C4 5E 06                 les bx, [bp+0x6]
0056 26 FF 9F D4 00           call far word [es:bx+0xd4]
005B 59                       pop cx
005C 59                       pop cx
005D B8 1A 00                 mov ax, 0x1a
0060 50                       push ax
0061 B8 06 00                 mov ax, 0x6
0064 50                       push ax
0065 C4 5E 06                 les bx, [bp+0x6]
0068 26 FF 9F D4 00           call far word [es:bx+0xd4]
006D 59                       pop cx
006E 59                       pop cx
006F                          RETURN

Functn04: "ENCWINTR"
0000                          BEGIN
0003                          ShowMessage(04E8) = A titanic Elemental appears!
0010                          ShowMessage(0505) = 'You have gotten past Zephyr, Tempest, ZZyzx, Heaven's Fury, and all other winds.  But now you face your greatest challenge!'
001D                          ShowMessage(0583) = The sky above you darkens and dark clouds mass together. Tornadoes swirl around you.  Hurricane winds beat against you.  The clouds shine with the endless flash of lightning.
002A                          ShowMessage(0632) = The winds rip at your weapons.
0037 C4 5E 06                 les bx, [bp+0x6]
003A 26 FF 9F 88 00           call far word [es:bx+0x88]
003F 3D 09 00                 cmp ax, 0x9
0042 74 20                    jz 0x64
0044                          ShowMessage(0651) = Your weapon snaps in the wind!  It is gone.
0051 C4 5E 06                 les bx, [bp+0x6]
0054 26 FF 9F 88 00           call far word [es:bx+0x88]
0059 50                       push ax
005A C4 5E 06                 les bx, [bp+0x6]
005D 26 FF 5F 4C              call far word [es:bx+0x4c]
0061 59                       pop cx
0062 EB 0D                    jmp 0x71
0064                          ShowMessage(067D) = The Wind Sword resists the winds!  It will indeed be a good fight!
0071                          ShowMessage(06C0) = You notice En-Li-Kil, the Time Elemental, vanish.
007E B8 19 00                 mov ax, 0x19
0081 50                       push ax
0082 B8 01 00                 mov ax, 0x1
0085 50                       push ax
0086 C4 5E 06                 les bx, [bp+0x6]
0089 26 FF 9F D4 00           call far word [es:bx+0xd4]
008E 59                       pop cx
008F 59                       pop cx
0090 B8 19 00                 mov ax, 0x19
0093 50                       push ax
0094 B8 02 00                 mov ax, 0x2
0097 50                       push ax
0098 C4 5E 06                 les bx, [bp+0x6]
009B 26 FF 9F D4 00           call far word [es:bx+0xd4]
00A0 59                       pop cx
00A1 59                       pop cx
00A2 B8 19 00                 mov ax, 0x19
00A5 50                       push ax
00A6 B8 03 00                 mov ax, 0x3
00A9 50                       push ax
00AA C4 5E 06                 les bx, [bp+0x6]
00AD 26 FF 9F D4 00           call far word [es:bx+0xd4]
00B2 59                       pop cx
00B3 59                       pop cx
00B4 B8 19 00                 mov ax, 0x19
00B7 50                       push ax
00B8 B8 04 00                 mov ax, 0x4
00BB 50                       push ax
00BC C4 5E 06                 les bx, [bp+0x6]
00BF 26 FF 9F D4 00           call far word [es:bx+0xd4]
00C4 59                       pop cx
00C5 59                       pop cx
00C6 B8 1B 00                 mov ax, 0x1b
00C9 50                       push ax
00CA B8 06 00                 mov ax, 0x6
00CD 50                       push ax
00CE C4 5E 06                 les bx, [bp+0x6]
00D1 26 FF 9F D4 00           call far word [es:bx+0xd4]
00D6 59                       pop cx
00D7 59                       pop cx
00D8                          RETURN

Functn05: "RAINRED"
0000                          BEGIN
0003                          ShowMessage(06F2) = A streak of Red crosses the Ageless Void.
0010                          GoMap(02, 97, 03, 38)
002B                          RETURN

Functn06: "RAINYEL"
0000                          BEGIN
0003                          ShowMessage(071C) = A streak of Yellow crosses the Ageless Void.
0010                          GoMap(02, 87, 03, 38)
002B                          RETURN

Functn07: "RAINGRN"
0000                          BEGIN
0003                          ShowMessage(0749) = A streak of Green crosses the Ageless Void.
0010                          GoMap(02, 77, 03, 38)
002B                          RETURN

Functn08: "RAINBLU"
0000                          BEGIN
0003                          ShowMessage(0775) = A streak of Blue crosses the Ageless Void.
0010                          GoMap(02, 67, 03, 38)
002B                          RETURN

Functn09: "ENCTIME"
0000                          BEGIN
0003                          ShowMessage(07A0) = Threads of blinding light appear from all directions, bending and weaving into a tight spiral before you.
0010                          ShowMessage(080A) = From within the luminary vortex, an ageless elemental appears.
001D                          ShowMessage(0849) = 'I am Time, I am En-Li-Kil.  I have seen the birth of the universe and I will mark its death.'
002A                          ShowMessage(08A8) = His face turns with age, then glows bright red.
0037                          ShowMessage(08D8) = 'Arnakkian summoned me to this realm -- to watch over his soul -- to make him immortal.  He lost his body and his castle for his lust.
0044                          ShowMessage(095F) = Mortal!  You have no business in the affairs of Time. I waste myself no more, my Wind Elemental will deal with you.'
0051                          RETURN

Functn0A: "TELENW"
0000                          BEGIN
0003                          ShowMessage(09D4) = You enter another dimension.
0010                          GoMap(01, 54, 01, 39)
002B                          RETURN

Functn0B: "TELENE"
0000                          BEGIN
0003                          ShowMessage(09F1) = You enter another dimension.
0010                          GoMap(00, 4A, 01, 39)
002A                          RETURN

Functn0C: "TELESE"
0000                          BEGIN
0003                          ShowMessage(0A0E) = You enter another dimension.
0010                          GoMap(03, AB, 01, 39)
002B                          RETURN

Functn0D: "TELESW"
0000                          BEGIN
0003                          ShowMessage(0A2B) = You enter another dimension.
0010                          GoMap(02, B5, 01, 39)
002B                          RETURN

